

HI-TECH Software PIC LITE Macro Assembler V9.83 build 10920 
                                                                                               Sat Aug 20 16:26:11 2016

HI-TECH Software Omniscient Code Generator (Lite mode) build 10920
     1  0000                     opt subtitle "HI-TECH Software Omniscient Code Generator (Lite mode) build 10920"
     2                           
     3                           opt pagewidth 120
     4                           
     5                           	opt lm
     6                           
     7                           	processor	16F690
     8                           clrc	macro
     9                           	bcf	3,0
    10  0000                     	endm
    11                           clrz	macro
    12                           	bcf	3,2
    13  0000                     	endm
    14                           setc	macro
    15                           	bsf	3,0
    16  0000                     	endm
    17                           setz	macro
    18                           	bsf	3,2
    19  0000                     	endm
    20                           skipc	macro
    21                           	btfss	3,0
    22  0000                     	endm
    23                           skipz	macro
    24                           	btfss	3,2
    25  0000                     	endm
    26                           skipnc	macro
    27                           	btfsc	3,0
    28  0000                     	endm
    29                           skipnz	macro
    30                           	btfsc	3,2
    31  0000                     	endm
    32  0000                     indf	equ	0
    33  0000                     indf0	equ	0
    34  0002                     pc	equ	2
    35  0002                     pcl	equ	2
    36  0003                     status	equ	3
    37  0004                     fsr	equ	4
    38  0004                     fsr0	equ	4
    39  0001                     c	equ	1
    40  0000                     z	equ	0
    41  000A                     pclath	equ	10
    42                           # 16 "CLCP001.c"
    43                           	psect config,class=CONFIG,delta=2 ;#
    44                           # 16 "CLCP001.c"
    45  2007  3FD4               	dw 0x3FFC & 0x3FF7 & 0x3FDF & 0x3FFF ;#
    46                           	FNCALL	_main,_onewire_init
    47                           	FNCALL	_main,_IdentifyConnectedControllers
    48                           	FNCALL	_main,_InitialiseSensors
    49                           	FNCALL	_main,_onewire_sendpacket
    50                           	FNCALL	_main,_onewire_listen
    51                           	FNCALL	_main,_CalculateAverageHumidity
    52                           	FNCALL	_InitialiseSensors,_onewire_sendpacket
    53                           	FNCALL	_InitialiseSensors,_onewire_listen
    54                           	FNCALL	_IdentifyConnectedControllers,_onewire_sendpacket
    55                           	FNCALL	_IdentifyConnectedControllers,_onewire_listen
    56                           	FNCALL	_onewire_listen,_onewire_read
    57                           	FNCALL	_onewire_sendpacket,_onewire_write
    58                           	FNCALL	_CalculateAverageHumidity,___lwdiv
    59                           	FNROOT	_main
    60                           	FNCALL	intlevel1,_isr
    61                           	global	intlevel1
    62                           	FNROOT	intlevel1
    63                           	global	_SensorsArray
    64                           	global	_TimeoutOverflowCounter
    65                           	global	_BreakOnTimeout
    66                           	global	_IDTimeout
    67                           	global	_TimeoutMultiplier
    68                           psect	nvBANK0,class=BANK0,space=1
    69                           global __pnvBANK0
    70  005A                     __pnvBANK0:
    71  005A                     _TimeoutMultiplier:
    72  005A                            ds      2
    73                           
    74                           	global	_INTCON
    75  000B                     _INTCON	set	11
    76                           	global	_PORTA
    77  0005                     _PORTA	set	5
    78                           	global	_PORTB
    79  0006                     _PORTB	set	6
    80                           	global	_RCREG
    81  001A                     _RCREG	set	26
    82                           	global	_RCSTA
    83  0018                     _RCSTA	set	24
    84                           	global	_T1CON
    85  0010                     _T1CON	set	16
    86                           	global	_TMR1H
    87  000F                     _TMR1H	set	15
    88                           	global	_TMR1L
    89  000E                     _TMR1L	set	14
    90                           	global	_TXREG
    91  0019                     _TXREG	set	25
    92                           	global	_CARRY
    93  0018                     _CARRY	set	24
    94                           	global	_GIE
    95  005F                     _GIE	set	95
    96                           	global	_RCIF
    97  0065                     _RCIF	set	101
    98                           	global	_TMR1IF
    99  0060                     _TMR1IF	set	96
   100                           	global	_TMR1ON
   101  0080                     _TMR1ON	set	128
   102                           	global	_TXIF
   103  0064                     _TXIF	set	100
   104                           	global	_BAUDCTL
   105  009B                     _BAUDCTL	set	155
   106                           	global	_OSCCON
   107  008F                     _OSCCON	set	143
   108                           	global	_PIE1
   109  008C                     _PIE1	set	140
   110                           	global	_SPBRG
   111  0099                     _SPBRG	set	153
   112                           	global	_TRISA
   113  0085                     _TRISA	set	133
   114                           	global	_TRISB
   115  0086                     _TRISB	set	134
   116                           	global	_TXSTA
   117  0098                     _TXSTA	set	152
   118                           	global	_TRISB5
   119  0435                     _TRISB5	set	1077
   120                           	global	_TRISB7
   121  0437                     _TRISB7	set	1079
   122                           	global	_ANSEL
   123  011E                     _ANSEL	set	286
   124                           	global	_ANSELH
   125  011F                     _ANSELH	set	287
   126                           	global	_CM1CON0
   127  0119                     _CM1CON0	set	281
   128                           	global	_CM2CON0
   129  011A                     _CM2CON0	set	282
   130                           	global	_EEADR
   131  010D                     _EEADR	set	269
   132                           	global	_EEDATA
   133  010C                     _EEDATA	set	268
   134                           	global	_EECON1
   135  018C                     _EECON1	set	396
   136                           	global	_EECON2
   137  018D                     _EECON2	set	397
   138                           	global	_RD
   139  0C60                     _RD	set	3168
   140                           	global	_WR
   141  0C61                     _WR	set	3169
   142                           	global	_WREN
   143  0C62                     _WREN	set	3170
   144                           	file	"C:\Users\Dave\AppData\Local\Temp\s63g."
   145                           	line	#
   146                           psect cinit,class=CODE,delta=2
   147                           global start_initialization
   148  06E8                     start_initialization:
   149                           
   150                           psect	bitbssCOMMON,class=COMMON,bit,space=1
   151                           global __pbitbssCOMMON
   152  03C8                     __pbitbssCOMMON:
   153  03C8                     _BreakOnTimeout:
   154  03C8                            ds      1
   155                           
   156  03C9                     _IDTimeout:
   157  03C9                            ds      1
   158                           
   159                           psect	bssBANK0,class=BANK0,space=1
   160                           global __pbssBANK0
   161  0054                     __pbssBANK0:
   162  0054                     _SensorsArray:
   163  0054                            ds      4
   164                           
   165  0058                     _TimeoutOverflowCounter:
   166  0058                            ds      2
   167                           
   168                           ; Clear objects allocated to BITCOMMON
   169                           psect cinit,class=CODE,delta=2
   170  06E8  01F9               	clrf	((__pbitbssCOMMON/8)+0)&07Fh
   171                           ; Clear objects allocated to BANK0
   172                           psect cinit,class=CODE,delta=2
   173  06E9  01D4               	clrf	((__pbssBANK0)+0)&07Fh
   174  06EA  01D5               	clrf	((__pbssBANK0)+1)&07Fh
   175  06EB  01D6               	clrf	((__pbssBANK0)+2)&07Fh
   176  06EC  01D7               	clrf	((__pbssBANK0)+3)&07Fh
   177  06ED  01D8               	clrf	((__pbssBANK0)+4)&07Fh
   178  06EE  01D9               	clrf	((__pbssBANK0)+5)&07Fh
   179                           psect cinit,class=CODE,delta=2
   180                           global end_of_initialization
   181                           
   182                           ;End of C runtime variable initialization code
   183                           
   184  06EF                     end_of_initialization:
   185  06EF  0183               clrf status
   186  06F0  118A  2813         ljmp _main	;jump to C main() function
   187                           psect	cstackCOMMON,class=COMMON,space=1
   188                           global __pcstackCOMMON
   189  0070                     __pcstackCOMMON:
   190                           	global	?_onewire_init
   191  0070                     ?_onewire_init:	; 0 bytes @ 0x0
   192                           	global	?_isr
   193  0070                     ?_isr:	; 0 bytes @ 0x0
   194                           	global	??_isr
   195  0070                     ??_isr:	; 0 bytes @ 0x0
   196                           	global	?_IdentifyConnectedControllers
   197  0070                     ?_IdentifyConnectedControllers:	; 0 bytes @ 0x0
   198                           	global	?_InitialiseSensors
   199  0070                     ?_InitialiseSensors:	; 0 bytes @ 0x0
   200                           	global	?_onewire_write
   201  0070                     ?_onewire_write:	; 0 bytes @ 0x0
   202                           	global	?_onewire_listen
   203  0070                     ?_onewire_listen:	; 1 bytes @ 0x0
   204                           	global	?_onewire_read
   205  0070                     ?_onewire_read:	; 1 bytes @ 0x0
   206                           	global	?_main
   207  0070                     ?_main:	; 2 bytes @ 0x0
   208  0070                     	ds	4
   209                           	global	??_onewire_init
   210  0074                     ??_onewire_init:	; 0 bytes @ 0x4
   211                           	global	??_onewire_write
   212  0074                     ??_onewire_write:	; 0 bytes @ 0x4
   213                           	global	??_onewire_read
   214  0074                     ??_onewire_read:	; 0 bytes @ 0x4
   215                           	global	?___lwdiv
   216  0074                     ?___lwdiv:	; 2 bytes @ 0x4
   217                           	global	___lwdiv@divisor
   218  0074                     ___lwdiv@divisor:	; 2 bytes @ 0x4
   219  0074                     	ds	2
   220                           	global	??_onewire_sendpacket
   221  0076                     ??_onewire_sendpacket:	; 0 bytes @ 0x6
   222                           	global	??_onewire_listen
   223  0076                     ??_onewire_listen:	; 0 bytes @ 0x6
   224                           	global	___lwdiv@dividend
   225  0076                     ___lwdiv@dividend:	; 2 bytes @ 0x6
   226  0076                     	ds	1
   227                           	global	onewire_sendpacket@RxAddress
   228  0077                     onewire_sendpacket@RxAddress:	; 1 bytes @ 0x7
   229  0077                     	ds	1
   230                           	global	??_IdentifyConnectedControllers
   231  0078                     ??_IdentifyConnectedControllers:	; 0 bytes @ 0x8
   232                           	global	??_InitialiseSensors
   233  0078                     ??_InitialiseSensors:	; 0 bytes @ 0x8
   234                           	global	??___lwdiv
   235  0078                     ??___lwdiv:	; 0 bytes @ 0x8
   236  0078                     	ds	1
   237                           psect	cstackBANK0,class=BANK0,space=1
   238                           global __pcstackBANK0
   239  0020                     __pcstackBANK0:
   240                           	global	onewire_write@data
   241  0020                     onewire_write@data:	; 1 bytes @ 0x0
   242                           	global	onewire_read@databit
   243  0020                     onewire_read@databit:	; 1 bytes @ 0x0
   244                           	global	___lwdiv@quotient
   245  0020                     ___lwdiv@quotient:	; 2 bytes @ 0x0
   246  0020                     	ds	1
   247                           	global	onewire_write@count
   248  0021                     onewire_write@count:	; 2 bytes @ 0x1
   249                           	global	onewire_read@count
   250  0021                     onewire_read@count:	; 2 bytes @ 0x1
   251  0021                     	ds	1
   252                           	global	___lwdiv@counter
   253  0022                     ___lwdiv@counter:	; 1 bytes @ 0x2
   254  0022                     	ds	1
   255                           	global	?_CalculateAverageHumidity
   256  0023                     ?_CalculateAverageHumidity:	; 2 bytes @ 0x3
   257                           	global	onewire_write@lsb
   258  0023                     onewire_write@lsb:	; 1 bytes @ 0x3
   259                           	global	onewire_read@data
   260  0023                     onewire_read@data:	; 1 bytes @ 0x3
   261  0023                     	ds	1
   262                           	global	?_onewire_sendpacket
   263  0024                     ?_onewire_sendpacket:	; 0 bytes @ 0x4
   264                           	global	onewire_listen@TxAddress
   265  0024                     onewire_listen@TxAddress:	; 1 bytes @ 0x4
   266                           	global	onewire_sendpacket@TxAddress
   267  0024                     onewire_sendpacket@TxAddress:	; 1 bytes @ 0x4
   268  0024                     	ds	1
   269                           	global	??_CalculateAverageHumidity
   270  0025                     ??_CalculateAverageHumidity:	; 0 bytes @ 0x5
   271                           	global	onewire_listen@address
   272  0025                     onewire_listen@address:	; 1 bytes @ 0x5
   273                           	global	onewire_sendpacket@payload
   274  0025                     onewire_sendpacket@payload:	; 1 bytes @ 0x5
   275  0025                     	ds	1
   276                           	global	onewire_listen@RxAddress
   277  0026                     onewire_listen@RxAddress:	; 1 bytes @ 0x6
   278  0026                     	ds	1
   279                           	global	onewire_listen@Payload
   280  0027                     onewire_listen@Payload:	; 1 bytes @ 0x7
   281  0027                     	ds	1
   282                           	global	onewire_listen@message_recieved
   283  0028                     onewire_listen@message_recieved:	; 2 bytes @ 0x8
   284  0028                     	ds	2
   285                           	global	IdentifyConnectedControllers@NextAddress
   286  002A                     IdentifyConnectedControllers@NextAddress:	; 1 bytes @ 0xA
   287                           	global	InitialiseSensors@SensorAddress
   288  002A                     InitialiseSensors@SensorAddress:	; 1 bytes @ 0xA
   289                           	global	CalculateAverageHumidity@HumiditySum
   290  002A                     CalculateAverageHumidity@HumiditySum:	; 2 bytes @ 0xA
   291  002A                     	ds	1
   292                           	global	IdentifyConnectedControllers@i
   293  002B                     IdentifyConnectedControllers@i:	; 2 bytes @ 0xB
   294                           	global	InitialiseSensors@i
   295  002B                     InitialiseSensors@i:	; 2 bytes @ 0xB
   296  002B                     	ds	1
   297                           	global	CalculateAverageHumidity@HumidSensorCount
   298  002C                     CalculateAverageHumidity@HumidSensorCount:	; 2 bytes @ 0xC
   299  002C                     	ds	2
   300                           	global	CalculateAverageHumidity@HumidityArray
   301  002E                     CalculateAverageHumidity@HumidityArray:	; 1 bytes @ 0xE
   302  002E                     	ds	1
   303                           	global	CalculateAverageHumidity@i
   304  002F                     CalculateAverageHumidity@i:	; 2 bytes @ 0xF
   305  002F                     	ds	2
   306                           	global	??_main
   307  0031                     ??_main:	; 0 bytes @ 0x11
   308  0031                     	ds	3
   309                           	global	main@controllerId
   310  0034                     main@controllerId:	; 1 bytes @ 0x14
   311  0034                     	ds	1
   312                           	global	main@Humidity
   313  0035                     main@Humidity:	; 8 bytes @ 0x15
   314  0035                     	ds	8
   315                           	global	main@Temp1L
   316  003D                     main@Temp1L:	; 1 bytes @ 0x1D
   317  003D                     	ds	1
   318                           	global	main@Temp1H
   319  003E                     main@Temp1H:	; 1 bytes @ 0x1E
   320  003E                     	ds	1
   321                           	global	main@Humid1L
   322  003F                     main@Humid1L:	; 1 bytes @ 0x1F
   323  003F                     	ds	1
   324                           	global	main@Humid1H
   325  0040                     main@Humid1H:	; 1 bytes @ 0x20
   326  0040                     	ds	1
   327                           	global	main@Temp2L
   328  0041                     main@Temp2L:	; 1 bytes @ 0x21
   329  0041                     	ds	1
   330                           	global	main@Temp2H
   331  0042                     main@Temp2H:	; 1 bytes @ 0x22
   332  0042                     	ds	1
   333                           	global	main@Humid2L
   334  0043                     main@Humid2L:	; 1 bytes @ 0x23
   335  0043                     	ds	1
   336                           	global	main@Humid2H
   337  0044                     main@Humid2H:	; 1 bytes @ 0x24
   338  0044                     	ds	1
   339                           	global	main@Temp3L
   340  0045                     main@Temp3L:	; 1 bytes @ 0x25
   341  0045                     	ds	1
   342                           	global	main@Temp3H
   343  0046                     main@Temp3H:	; 1 bytes @ 0x26
   344  0046                     	ds	1
   345                           	global	main@Humid3L
   346  0047                     main@Humid3L:	; 1 bytes @ 0x27
   347  0047                     	ds	1
   348                           	global	main@Humid3H
   349  0048                     main@Humid3H:	; 1 bytes @ 0x28
   350  0048                     	ds	1
   351                           	global	main@Temp4L
   352  0049                     main@Temp4L:	; 1 bytes @ 0x29
   353  0049                     	ds	1
   354                           	global	main@Temp4H
   355  004A                     main@Temp4H:	; 1 bytes @ 0x2A
   356  004A                     	ds	1
   357                           	global	main@Humid4L
   358  004B                     main@Humid4L:	; 1 bytes @ 0x2B
   359  004B                     	ds	1
   360                           	global	main@Humid4H
   361  004C                     main@Humid4H:	; 1 bytes @ 0x2C
   362  004C                     	ds	1
   363                           	global	main@HumidL
   364  004D                     main@HumidL:	; 1 bytes @ 0x2D
   365  004D                     	ds	1
   366                           	global	main@HumidH
   367  004E                     main@HumidH:	; 1 bytes @ 0x2E
   368  004E                     	ds	1
   369                           	global	main@Humid
   370  004F                     main@Humid:	; 2 bytes @ 0x2F
   371  004F                     	ds	2
   372                           	global	main@i
   373  0051                     main@i:	; 2 bytes @ 0x31
   374  0051                     	ds	2
   375                           	global	main@SensorAddress
   376  0053                     main@SensorAddress:	; 1 bytes @ 0x33
   377  0053                     	ds	1
   378 ;;Data sizes: Strings 0, constant 0, data 0, bss 6, persistent 2 stack 0
   379 ;;Auto spaces:   Size  Autos    Used
   380 ;; COMMON          14      9      10
   381 ;; BANK0           80     52      60
   382 ;; BANK1           80      0       0
   383 ;; BANK2           80      0       0
   384                           
   385 ;;
   386 ;; Pointer list with targets:
   387                           
   388 ;; ?_CalculateAverageHumidity	unsigned int  size(1) Largest target is 0
   389 ;;
   390 ;; ?___lwdiv	unsigned int  size(1) Largest target is 0
   391 ;;
   392 ;; CalculateAverageHumidity@HumidityArray	PTR unsigned char [2] size(1) Largest target is 8
   393 ;;		 -> main@Humidity(BANK0[8]), 
   394 ;;
   395                           
   396                           
   397 ;;
   398 ;; Critical Paths under _main in COMMON
   399 ;;
   400 ;;   _main->_IdentifyConnectedControllers
   401 ;;   _main->_InitialiseSensors
   402 ;;   _InitialiseSensors->_onewire_sendpacket
   403 ;;   _IdentifyConnectedControllers->_onewire_sendpacket
   404 ;;   _onewire_listen->_onewire_read
   405 ;;   _onewire_sendpacket->_onewire_write
   406 ;;   _CalculateAverageHumidity->___lwdiv
   407 ;;
   408 ;; Critical Paths under _isr in COMMON
   409 ;;
   410 ;;   None.
   411 ;;
   412 ;; Critical Paths under _main in BANK0
   413 ;;
   414 ;;   _main->_CalculateAverageHumidity
   415 ;;   _InitialiseSensors->_onewire_listen
   416 ;;   _IdentifyConnectedControllers->_onewire_listen
   417 ;;   _onewire_listen->_onewire_read
   418 ;;   _onewire_sendpacket->_onewire_write
   419 ;;   _CalculateAverageHumidity->___lwdiv
   420 ;;
   421 ;; Critical Paths under _isr in BANK0
   422 ;;
   423 ;;   None.
   424 ;;
   425 ;; Critical Paths under _main in BANK1
   426 ;;
   427 ;;   None.
   428 ;;
   429 ;; Critical Paths under _isr in BANK1
   430 ;;
   431 ;;   None.
   432 ;;
   433 ;; Critical Paths under _main in BANK2
   434 ;;
   435 ;;   None.
   436 ;;
   437 ;; Critical Paths under _isr in BANK2
   438 ;;
   439 ;;   None.
   440                           
   441 ;;
   442 ;;Main: autosize = 0, tempsize = 3, incstack = 0, save=0
   443 ;;
   444                           
   445 ;;
   446 ;;Call Graph Tables:
   447 ;;
   448 ;; ---------------------------------------------------------------------------------
   449 ;; (Depth) Function   	        Calls       Base Space   Used Autos Params    Refs
   450 ;; ---------------------------------------------------------------------------------
   451 ;; (0) _main                                                35    35      0    4225
   452 ;;                                             17 BANK0     35    35      0
   453 ;;                       _onewire_init
   454 ;;       _IdentifyConnectedControllers
   455 ;;                  _InitialiseSensors
   456 ;;                 _onewire_sendpacket
   457 ;;                     _onewire_listen
   458 ;;           _CalculateAverageHumidity
   459 ;; ---------------------------------------------------------------------------------
   460 ;; (1) _InitialiseSensors                                    4     4      0     841
   461 ;;                                              8 COMMON     1     1      0
   462 ;;                                             10 BANK0      3     3      0
   463 ;;                 _onewire_sendpacket
   464 ;;                     _onewire_listen
   465 ;; ---------------------------------------------------------------------------------
   466 ;; (1) _IdentifyConnectedControllers                         4     4      0     841
   467 ;;                                              8 COMMON     1     1      0
   468 ;;                                             10 BANK0      3     3      0
   469 ;;                 _onewire_sendpacket
   470 ;;                     _onewire_listen
   471 ;; ---------------------------------------------------------------------------------
   472 ;; (1) _onewire_listen                                       7     7      0     380
   473 ;;                                              6 COMMON     1     1      0
   474 ;;                                              4 BANK0      6     6      0
   475 ;;                       _onewire_read
   476 ;; ---------------------------------------------------------------------------------
   477 ;; (1) _onewire_sendpacket                                   4     2      2     297
   478 ;;                                              6 COMMON     2     2      0
   479 ;;                                              4 BANK0      2     0      2
   480 ;;                      _onewire_write
   481 ;; ---------------------------------------------------------------------------------
   482 ;; (2) _onewire_read                                         6     6      0     241
   483 ;;                                              4 COMMON     2     2      0
   484 ;;                                              0 BANK0      4     4      0
   485 ;; ---------------------------------------------------------------------------------
   486 ;; (2) _onewire_write                                        6     6      0     204
   487 ;;                                              4 COMMON     2     2      0
   488 ;;                                              0 BANK0      4     4      0
   489 ;; ---------------------------------------------------------------------------------
   490 ;; (1) _CalculateAverageHumidity                            14    12      2     410
   491 ;;                                              3 BANK0     14    12      2
   492 ;;                            ___lwdiv
   493 ;; ---------------------------------------------------------------------------------
   494 ;; (2) ___lwdiv                                              8     4      4     162
   495 ;;                                              4 COMMON     5     1      4
   496 ;;                                              0 BANK0      3     3      0
   497 ;; ---------------------------------------------------------------------------------
   498 ;; (1) _onewire_init                                         0     0      0       0
   499 ;; ---------------------------------------------------------------------------------
   500 ;; Estimated maximum stack depth 2
   501 ;; ---------------------------------------------------------------------------------
   502 ;; (Depth) Function   	        Calls       Base Space   Used Autos Params    Refs
   503 ;; ---------------------------------------------------------------------------------
   504 ;; (4) _isr                                                  4     4      0       0
   505 ;;                                              0 COMMON     4     4      0
   506 ;; ---------------------------------------------------------------------------------
   507 ;; Estimated maximum stack depth 4
   508 ;; ---------------------------------------------------------------------------------
   509                           
   510 ;; Call Graph Graphs:
   511                           
   512 ;; _main (ROOT)
   513 ;;   _onewire_init
   514 ;;   _IdentifyConnectedControllers
   515 ;;     _onewire_sendpacket
   516 ;;       _onewire_write
   517 ;;     _onewire_listen
   518 ;;       _onewire_read
   519 ;;   _InitialiseSensors
   520 ;;     _onewire_sendpacket
   521 ;;       _onewire_write
   522 ;;     _onewire_listen
   523 ;;       _onewire_read
   524 ;;   _onewire_sendpacket
   525 ;;     _onewire_write
   526 ;;   _onewire_listen
   527 ;;     _onewire_read
   528 ;;   _CalculateAverageHumidity
   529 ;;     ___lwdiv
   530 ;;
   531 ;; _isr (ROOT)
   532 ;;
   533                           
   534 ;; Address spaces:
   535                           
   536 ;;Name               Size   Autos  Total    Cost      Usage
   537 ;;BITCOMMON            E      0       1       0        7.1%
   538 ;;EEDATA             100      0       0       0        0.0%
   539 ;;NULL                 0      0       0       0        0.0%
   540 ;;CODE                 0      0       0       0        0.0%
   541 ;;COMMON               E      9       A       1       71.4%
   542 ;;BITSFR0              0      0       0       1        0.0%
   543 ;;SFR0                 0      0       0       1        0.0%
   544 ;;BITSFR1              0      0       0       2        0.0%
   545 ;;SFR1                 0      0       0       2        0.0%
   546 ;;STACK                0      0       3       2        0.0%
   547 ;;BANK0               50     34      3C       3       75.0%
   548 ;;BITBANK1            50      0       0       4        0.0%
   549 ;;BITSFR3              0      0       0       4        0.0%
   550 ;;SFR3                 0      0       0       4        0.0%
   551 ;;BANK1               50      0       0       5        0.0%
   552 ;;BITSFR2              0      0       0       5        0.0%
   553 ;;SFR2                 0      0       0       5        0.0%
   554 ;;BITBANK2            50      0       0       6        0.0%
   555 ;;BANK2               50      0       0       7        0.0%
   556 ;;ABS                  0      0      46       8        0.0%
   557 ;;BITBANK0            50      0       0       9        0.0%
   558 ;;DATA                 0      0      49      10        0.0%
   559                           
   560                           	global	_main
   561                           psect	maintext,global,class=CODE,delta=2
   562                           global __pmaintext
   563  0013                     __pmaintext:
   564                           
   565 ;; *************** function _main *****************
   566 ;; Defined at:
   567 ;;		line 102 in file "CLCP001.c"
   568 ;; Parameters:    Size  Location     Type
   569 ;;		None
   570 ;; Auto vars:     Size  Location     Type
   571 ;;  Humidity        8   21[BANK0 ] unsigned char [2][4]
   572 ;;  Humid           2   47[BANK0 ] unsigned int 
   573 ;;  HumidH          1   46[BANK0 ] unsigned char 
   574 ;;  HumidL          1   45[BANK0 ] unsigned char 
   575 ;;  Humid4H         1   44[BANK0 ] unsigned char 
   576 ;;  Humid4L         1   43[BANK0 ] unsigned char 
   577 ;;  Temp4H          1   42[BANK0 ] unsigned char 
   578 ;;  Temp4L          1   41[BANK0 ] unsigned char 
   579 ;;  Humid3H         1   40[BANK0 ] unsigned char 
   580 ;;  Humid3L         1   39[BANK0 ] unsigned char 
   581 ;;  Temp3H          1   38[BANK0 ] unsigned char 
   582 ;;  Temp3L          1   37[BANK0 ] unsigned char 
   583 ;;  Humid2H         1   36[BANK0 ] unsigned char 
   584 ;;  Humid2L         1   35[BANK0 ] unsigned char 
   585 ;;  Temp2H          1   34[BANK0 ] unsigned char 
   586 ;;  Temp2L          1   33[BANK0 ] unsigned char 
   587 ;;  Humid1H         1   32[BANK0 ] unsigned char 
   588 ;;  Humid1L         1   31[BANK0 ] unsigned char 
   589 ;;  Temp1H          1   30[BANK0 ] unsigned char 
   590 ;;  Temp1L          1   29[BANK0 ] unsigned char 
   591 ;;  controllerId    1   20[BANK0 ] unsigned char 
   592 ;;  SensorAddres    1   51[BANK0 ] unsigned char 
   593 ;;  i               2   49[BANK0 ] int 
   594 ;; Return value:  Size  Location     Type
   595 ;;                  2  751[COMMON] int 
   596 ;; Registers used:
   597 ;;		wreg, fsr0l, fsr0h, status,2, status,0, btemp+1, pclath, cstack
   598 ;; Tracked objects:
   599 ;;		On entry : 17F/0
   600 ;;		On exit  : 0/0
   601 ;;		Unchanged: 0/0
   602 ;; Data sizes:     COMMON   BANK0   BANK1   BANK2
   603 ;;      Params:         0       0       0       0
   604 ;;      Locals:         0      32       0       0
   605 ;;      Temps:          0       3       0       0
   606 ;;      Totals:         0      35       0       0
   607 ;;Total ram usage:       35 bytes
   608 ;; Hardware stack levels required when called:    4
   609 ;; This function calls:
   610 ;;		_onewire_init
   611 ;;		_IdentifyConnectedControllers
   612 ;;		_InitialiseSensors
   613 ;;		_onewire_sendpacket
   614 ;;		_onewire_listen
   615 ;;		_CalculateAverageHumidity
   616 ;; This function is called by:
   617 ;;		Startup code after reset
   618 ;; This function uses a non-reentrant model
   619 ;;
   620                           psect	maintext
   621                           	file	"CLCP001.c"
   622                           	line	102
   623                           	global	__size_of_main
   624  03B6                     	__size_of_main	equ	__end_of_main-_main
   625                           	
   626  0013                     _main:	
   627                           	opt	stack 4
   628                           ; Regs used in _main: [wreg-fsr0h+status,2+status,0+btemp+1+pclath+cstack]
   629                           	line	104
   630                           	
   631  0013                     l5519:	
   632                           ;CLCP001.c: 104: ANSEL = 0;
   633  0013  1283               	bcf	status, 5	;RP0=0, select bank2
   634  0014  1703               	bsf	status, 6	;RP1=1, select bank2
   635  0015  019E               	clrf	(286)^0100h	;volatile
   636                           	line	105
   637                           ;CLCP001.c: 105: ANSELH = 0;
   638  0016  019F               	clrf	(287)^0100h	;volatile
   639                           	line	106
   640                           ;CLCP001.c: 106: CM1CON0 = 0;
   641  0017  0199               	clrf	(281)^0100h	;volatile
   642                           	line	107
   643                           ;CLCP001.c: 107: CM2CON0 = 0;
   644  0018  019A               	clrf	(282)^0100h	;volatile
   645                           	line	108
   646                           	
   647  0019                     l5521:	
   648                           ;CLCP001.c: 108: OSCCON = 0b01110110;
   649  0019  3076               	movlw	(076h)
   650  001A  1683               	bsf	status, 5	;RP0=1, select bank1
   651  001B  1303               	bcf	status, 6	;RP1=0, select bank1
   652  001C  008F               	movwf	(143)^080h	;volatile
   653                           	line	110
   654                           	
   655  001D                     l5523:	
   656                           ;CLCP001.c: 110: TRISA = 0;
   657  001D  0185               	clrf	(133)^080h	;volatile
   658                           	line	111
   659                           	
   660  001E                     l5525:	
   661                           ;CLCP001.c: 111: PORTA = 0;
   662  001E  1283               	bcf	status, 5	;RP0=0, select bank0
   663  001F  1303               	bcf	status, 6	;RP1=0, select bank0
   664  0020  0185               	clrf	(5)	;volatile
   665                           	line	112
   666                           	
   667  0021                     l5527:	
   668                           ;CLCP001.c: 112: TRISB = 0;
   669  0021  1683               	bsf	status, 5	;RP0=1, select bank1
   670  0022  1303               	bcf	status, 6	;RP1=0, select bank1
   671  0023  0186               	clrf	(134)^080h	;volatile
   672                           	line	113
   673                           	
   674  0024                     l5529:	
   675                           ;CLCP001.c: 113: PORTB = 0;
   676  0024  1283               	bcf	status, 5	;RP0=0, select bank0
   677  0025  1303               	bcf	status, 6	;RP1=0, select bank0
   678  0026  0186               	clrf	(6)	;volatile
   679                           	line	116
   680                           	
   681  0027                     l5531:	
   682                           ;CLCP001.c: 116: onewire_init();
   683  0027  118A  26DA  118A   	fcall	_onewire_init
   684                           	line	117
   685                           	
   686  002A                     l5533:	
   687                           ;CLCP001.c: 117: _delay((unsigned long)((10000)*(8000000/4000.0)));
   688                           	opt asmopt_off
   689  002A  3066               movlw  102
   690  002B  1283               	bcf	status, 5	;RP0=0, select bank0
   691  002C  1303               	bcf	status, 6	;RP1=0, select bank0
   692  002D  00B3               movwf	((??_main+0)+0+2),f
   693  002E  3077               movlw	119
   694  002F  00B2               movwf	((??_main+0)+0+1),f
   695  0030  3024               	movlw	36
   696  0031  00B1               movwf	((??_main+0)+0),f
   697  0032                     u3667:
   698  0032  0BB1               	decfsz	((??_main+0)+0),f
   699  0033  2832               	goto	u3667
   700  0034  0BB2               	decfsz	((??_main+0)+0+1),f
   701  0035  2832               	goto	u3667
   702  0036  0BB3               	decfsz	((??_main+0)+0+2),f
   703  0037  2832               	goto	u3667
   704  0038  0064               	clrwdt
   705                           opt asmopt_on
   706                           
   707                           	line	121
   708                           	
   709  0039                     l5535:	
   710                           ;CLCP001.c: 121: IdentifyConnectedControllers();
   711  0039  118A  264C  118A   	fcall	_IdentifyConnectedControllers
   712                           	line	124
   713                           	
   714  003C                     l5537:	
   715                           ;CLCP001.c: 124: InitialiseSensors();
   716  003C  118A  25FF  118A   	fcall	_InitialiseSensors
   717  003F  2840               	goto	l5539
   718                           	line	126
   719                           ;CLCP001.c: 126: while (1)
   720                           	
   721  0040                     l752:	
   722                           	line	128
   723                           	
   724  0040                     l5539:	
   725                           ;CLCP001.c: 127: {
   726                           ;CLCP001.c: 128: for (int i = 0;i < 4; i++)
   727  0040  1283               	bcf	status, 5	;RP0=0, select bank0
   728  0041  1303               	bcf	status, 6	;RP1=0, select bank0
   729  0042  01D1               	clrf	(main@i)
   730  0043  01D2               	clrf	(main@i+1)
   731                           	
   732  0044                     l5541:	
   733  0044  0852               	movf	(main@i+1),w
   734  0045  3A80               	xorlw	80h
   735  0046  00FF               	movwf	btemp+1
   736  0047  3080               	movlw	(high(04h))^80h
   737  0048  027F               	subwf	btemp+1,w
   738  0049  1D03               	skipz
   739  004A  284D               	goto	u3545
   740  004B  3004               	movlw	low(04h)
   741  004C  0251               	subwf	(main@i),w
   742  004D                     u3545:
   743                           
   744  004D  1C03               	skipc
   745  004E  2850               	goto	u3541
   746  004F  2851               	goto	u3540
   747  0050                     u3541:
   748  0050  2853               	goto	l5545
   749  0051                     u3540:
   750  0051  2840               	goto	l5539
   751                           	
   752  0052                     l5543:	
   753  0052  2840               	goto	l5539
   754                           	line	129
   755                           	
   756  0053                     l753:	
   757                           	line	132
   758                           	
   759  0053                     l5545:	
   760                           ;CLCP001.c: 129: {
   761                           ;CLCP001.c: 131: unsigned char SensorAddress;
   762                           ;CLCP001.c: 132: SensorAddress = 0x10 + i;
   763  0053  1283               	bcf	status, 5	;RP0=0, select bank0
   764  0054  1303               	bcf	status, 6	;RP1=0, select bank0
   765  0055  0851               	movf	(main@i),w
   766  0056  3E10               	addlw	010h
   767  0057  00B1               	movwf	(??_main+0)+0
   768  0058  0831               	movf	(??_main+0)+0,w
   769  0059  00D3               	movwf	(main@SensorAddress)
   770                           	line	134
   771                           	
   772  005A                     l5547:	
   773                           ;CLCP001.c: 134: if (SensorsArray[i] != 0xFF)
   774  005A  0851               	movf	(main@i),w
   775  005B  3E54               	addlw	_SensorsArray&0ffh
   776  005C  0084               	movwf	fsr0
   777  005D  1383               	bcf	status, 7	;select IRP bank0
   778  005E  0800               	movf	indf,w
   779  005F  3AFF               	xorlw	0FFh
   780  0060  1903               	skipnz
   781  0061  2863               	goto	u3551
   782  0062  2864               	goto	u3550
   783  0063                     u3551:
   784  0063  2BAF               	goto	l5691
   785  0064                     u3550:
   786                           	line	137
   787                           	
   788  0064                     l5549:	
   789                           ;CLCP001.c: 135: {
   790                           ;CLCP001.c: 137: BreakOnTimeout = 1;
   791  0064  1479               	bsf	(_BreakOnTimeout/8),(_BreakOnTimeout)&7
   792                           	line	138
   793                           	
   794  0065                     l5551:	
   795                           ;CLCP001.c: 138: TimeoutMultiplier = 8;
   796  0065  3008               	movlw	low(08h)
   797  0066  00DA               	movwf	(_TimeoutMultiplier)
   798  0067  3000               	movlw	high(08h)
   799  0068  00DB               	movwf	((_TimeoutMultiplier))+1
   800                           	line	163
   801                           	
   802  0069                     l5553:	
   803                           ;CLCP001.c: 141: unsigned char controllerId;
   804                           ;CLCP001.c: 142: unsigned char Temp1L;
   805                           ;CLCP001.c: 143: unsigned char Temp1H;
   806                           ;CLCP001.c: 144: unsigned char Humid1L;
   807                           ;CLCP001.c: 145: unsigned char Humid1H;
   808                           ;CLCP001.c: 146: unsigned char Temp2L;
   809                           ;CLCP001.c: 147: unsigned char Temp2H;
   810                           ;CLCP001.c: 148: unsigned char Humid2L;
   811                           ;CLCP001.c: 149: unsigned char Humid2H;
   812                           ;CLCP001.c: 150: unsigned char Temp3L;
   813                           ;CLCP001.c: 151: unsigned char Temp3H;
   814                           ;CLCP001.c: 152: unsigned char Humid3L;
   815                           ;CLCP001.c: 153: unsigned char Humid3H;
   816  0069  18F9               	btfsc	(_IDTimeout/8),(_IDTimeout)&7
   817  006A  286C               	goto	u3561
   818  006B  286D               	goto	u3560
   819  006C                     u3561:
   820  006C  2BAF               	goto	l5691
   821  006D                     u3560:
   822                           	line	165
   823                           	
   824  006D                     l5555:	
   825                           ;CLCP001.c: 164: {
   826                           ;CLCP001.c: 165: _delay((unsigned long)((10)*(8000000/4000.0)));
   827                           	opt asmopt_off
   828  006D  301A               movlw	26
   829  006E  00B2               movwf	((??_main+0)+0+1),f
   830  006F  30F8               	movlw	248
   831  0070  00B1               movwf	((??_main+0)+0),f
   832  0071                     u3677:
   833  0071  0BB1               	decfsz	((??_main+0)+0),f
   834  0072  2871               	goto	u3677
   835  0073  0BB2               	decfsz	((??_main+0)+0+1),f
   836  0074  2871               	goto	u3677
   837  0075  0064               	clrwdt
   838                           opt asmopt_on
   839                           
   840                           	line	166
   841                           	
   842  0076                     l5557:	
   843                           ;CLCP001.c: 166: onewire_sendpacket(SensorAddress,0x00,0x00);
   844  0076  1283               	bcf	status, 5	;RP0=0, select bank0
   845  0077  1303               	bcf	status, 6	;RP1=0, select bank0
   846  0078  01A4               	clrf	(?_onewire_sendpacket)
   847  0079  01A5               	clrf	0+(?_onewire_sendpacket)+01h
   848  007A  0853               	movf	(main@SensorAddress),w
   849  007B  118A  26BE  118A   	fcall	_onewire_sendpacket
   850                           	line	167
   851                           	
   852  007E                     l5559:	
   853                           ;CLCP001.c: 167: controllerId = onewire_listen(0x00);
   854  007E  3000               	movlw	(0)
   855  007F  118A  23C9  118A   	fcall	_onewire_listen
   856  0082  1283               	bcf	status, 5	;RP0=0, select bank0
   857  0083  1303               	bcf	status, 6	;RP1=0, select bank0
   858  0084  00B1               	movwf	(??_main+0)+0
   859  0085  0831               	movf	(??_main+0)+0,w
   860  0086  00B4               	movwf	(main@controllerId)
   861                           	line	168
   862                           ;CLCP001.c: 168: }
   863  0087  2889               	goto	l757
   864                           	line	169
   865                           	
   866  0088                     l756:	
   867                           	line	170
   868                           ;CLCP001.c: 169: else
   869                           ;CLCP001.c: 170: continue;
   870  0088  2BAF               	goto	l5691
   871                           	
   872  0089                     l757:	
   873                           	line	172
   874                           ;CLCP001.c: 172: if (IDTimeout == 0)
   875  0089  18F9               	btfsc	(_IDTimeout/8),(_IDTimeout)&7
   876  008A  288C               	goto	u3571
   877  008B  288D               	goto	u3570
   878  008C                     u3571:
   879  008C  2BAF               	goto	l5691
   880  008D                     u3570:
   881                           	line	174
   882                           	
   883  008D                     l5561:	
   884                           ;CLCP001.c: 173: {
   885                           ;CLCP001.c: 174: _delay((unsigned long)((10)*(8000000/4000.0)));
   886                           	opt asmopt_off
   887  008D  301A               movlw	26
   888  008E  00B2               movwf	((??_main+0)+0+1),f
   889  008F  30F8               	movlw	248
   890  0090  00B1               movwf	((??_main+0)+0),f
   891  0091                     u3687:
   892  0091  0BB1               	decfsz	((??_main+0)+0),f
   893  0092  2891               	goto	u3687
   894  0093  0BB2               	decfsz	((??_main+0)+0+1),f
   895  0094  2891               	goto	u3687
   896  0095  0064               	clrwdt
   897                           opt asmopt_on
   898                           
   899                           	line	175
   900                           	
   901  0096                     l5563:	
   902                           ;CLCP001.c: 175: onewire_sendpacket(SensorAddress,0x00,0x01);
   903  0096  1283               	bcf	status, 5	;RP0=0, select bank0
   904  0097  1303               	bcf	status, 6	;RP1=0, select bank0
   905  0098  01A4               	clrf	(?_onewire_sendpacket)
   906  0099  01A5               	clrf	0+(?_onewire_sendpacket)+01h
   907  009A  1403               	bsf	status,0
   908  009B  0DA5               	rlf	0+(?_onewire_sendpacket)+01h,f
   909  009C  0853               	movf	(main@SensorAddress),w
   910  009D  118A  26BE  118A   	fcall	_onewire_sendpacket
   911                           	line	176
   912                           	
   913  00A0                     l5565:	
   914                           ;CLCP001.c: 176: Temp1L = onewire_listen(0x00);
   915  00A0  3000               	movlw	(0)
   916  00A1  118A  23C9  118A   	fcall	_onewire_listen
   917  00A4  1283               	bcf	status, 5	;RP0=0, select bank0
   918  00A5  1303               	bcf	status, 6	;RP1=0, select bank0
   919  00A6  00B1               	movwf	(??_main+0)+0
   920  00A7  0831               	movf	(??_main+0)+0,w
   921  00A8  00BD               	movwf	(main@Temp1L)
   922                           	line	177
   923                           ;CLCP001.c: 177: _delay((unsigned long)((2)*(8000000/4000.0)));
   924                           	opt asmopt_off
   925  00A9  3006               movlw	6
   926  00AA  00B2               movwf	((??_main+0)+0+1),f
   927  00AB  3030               	movlw	48
   928  00AC  00B1               movwf	((??_main+0)+0),f
   929  00AD                     u3697:
   930  00AD  0BB1               	decfsz	((??_main+0)+0),f
   931  00AE  28AD               	goto	u3697
   932  00AF  0BB2               	decfsz	((??_main+0)+0+1),f
   933  00B0  28AD               	goto	u3697
   934  00B1  0064               	clrwdt
   935                           opt asmopt_on
   936                           
   937                           	line	178
   938                           	
   939  00B2                     l5567:	
   940                           ;CLCP001.c: 178: Temp1H = onewire_listen(0x00);
   941  00B2  3000               	movlw	(0)
   942  00B3  118A  23C9  118A   	fcall	_onewire_listen
   943  00B6  1283               	bcf	status, 5	;RP0=0, select bank0
   944  00B7  1303               	bcf	status, 6	;RP1=0, select bank0
   945  00B8  00B1               	movwf	(??_main+0)+0
   946  00B9  0831               	movf	(??_main+0)+0,w
   947  00BA  00BE               	movwf	(main@Temp1H)
   948                           	line	179
   949                           ;CLCP001.c: 179: }
   950  00BB  28BD               	goto	l760
   951                           	line	180
   952                           	
   953  00BC                     l759:	
   954                           	line	181
   955                           ;CLCP001.c: 180: else
   956                           ;CLCP001.c: 181: continue;
   957  00BC  2BAF               	goto	l5691
   958                           	
   959  00BD                     l760:	
   960                           	line	183
   961                           ;CLCP001.c: 183: if (IDTimeout == 0)
   962  00BD  18F9               	btfsc	(_IDTimeout/8),(_IDTimeout)&7
   963  00BE  28C0               	goto	u3581
   964  00BF  28C1               	goto	u3580
   965  00C0                     u3581:
   966  00C0  2BAF               	goto	l5691
   967  00C1                     u3580:
   968                           	line	185
   969                           	
   970  00C1                     l5569:	
   971                           ;CLCP001.c: 184: {
   972                           ;CLCP001.c: 185: _delay((unsigned long)((10)*(8000000/4000.0)));
   973                           	opt asmopt_off
   974  00C1  301A               movlw	26
   975  00C2  00B2               movwf	((??_main+0)+0+1),f
   976  00C3  30F8               	movlw	248
   977  00C4  00B1               movwf	((??_main+0)+0),f
   978  00C5                     u3707:
   979  00C5  0BB1               	decfsz	((??_main+0)+0),f
   980  00C6  28C5               	goto	u3707
   981  00C7  0BB2               	decfsz	((??_main+0)+0+1),f
   982  00C8  28C5               	goto	u3707
   983  00C9  0064               	clrwdt
   984                           opt asmopt_on
   985                           
   986                           	line	186
   987                           	
   988  00CA                     l5571:	
   989                           ;CLCP001.c: 186: onewire_sendpacket(SensorAddress,0x00,0x02);
   990  00CA  1283               	bcf	status, 5	;RP0=0, select bank0
   991  00CB  1303               	bcf	status, 6	;RP1=0, select bank0
   992  00CC  01A4               	clrf	(?_onewire_sendpacket)
   993  00CD  3002               	movlw	(02h)
   994  00CE  00B1               	movwf	(??_main+0)+0
   995  00CF  0831               	movf	(??_main+0)+0,w
   996  00D0  00A5               	movwf	0+(?_onewire_sendpacket)+01h
   997  00D1  0853               	movf	(main@SensorAddress),w
   998  00D2  118A  26BE  118A   	fcall	_onewire_sendpacket
   999                           	line	187
  1000                           	
  1001  00D5                     l5573:	
  1002                           ;CLCP001.c: 187: Humid1L = onewire_listen(0x00);
  1003  00D5  3000               	movlw	(0)
  1004  00D6  118A  23C9  118A   	fcall	_onewire_listen
  1005  00D9  1283               	bcf	status, 5	;RP0=0, select bank0
  1006  00DA  1303               	bcf	status, 6	;RP1=0, select bank0
  1007  00DB  00B1               	movwf	(??_main+0)+0
  1008  00DC  0831               	movf	(??_main+0)+0,w
  1009  00DD  00BF               	movwf	(main@Humid1L)
  1010                           	line	188
  1011                           ;CLCP001.c: 188: _delay((unsigned long)((2)*(8000000/4000.0)));
  1012                           	opt asmopt_off
  1013  00DE  3006               movlw	6
  1014  00DF  00B2               movwf	((??_main+0)+0+1),f
  1015  00E0  3030               	movlw	48
  1016  00E1  00B1               movwf	((??_main+0)+0),f
  1017  00E2                     u3717:
  1018  00E2  0BB1               	decfsz	((??_main+0)+0),f
  1019  00E3  28E2               	goto	u3717
  1020  00E4  0BB2               	decfsz	((??_main+0)+0+1),f
  1021  00E5  28E2               	goto	u3717
  1022  00E6  0064               	clrwdt
  1023                           opt asmopt_on
  1024                           
  1025                           	line	189
  1026                           	
  1027  00E7                     l5575:	
  1028                           ;CLCP001.c: 189: Humid1H = onewire_listen(0x00);
  1029  00E7  3000               	movlw	(0)
  1030  00E8  118A  23C9  118A   	fcall	_onewire_listen
  1031  00EB  1283               	bcf	status, 5	;RP0=0, select bank0
  1032  00EC  1303               	bcf	status, 6	;RP1=0, select bank0
  1033  00ED  00B1               	movwf	(??_main+0)+0
  1034  00EE  0831               	movf	(??_main+0)+0,w
  1035  00EF  00C0               	movwf	(main@Humid1H)
  1036                           	line	190
  1037                           ;CLCP001.c: 190: }
  1038  00F0  28F2               	goto	l762
  1039                           	line	191
  1040                           	
  1041  00F1                     l761:	
  1042                           	line	192
  1043                           ;CLCP001.c: 191: else
  1044                           ;CLCP001.c: 192: continue;
  1045  00F1  2BAF               	goto	l5691
  1046                           	
  1047  00F2                     l762:	
  1048                           	line	194
  1049                           ;CLCP001.c: 194: if (IDTimeout == 0)
  1050  00F2  18F9               	btfsc	(_IDTimeout/8),(_IDTimeout)&7
  1051  00F3  28F5               	goto	u3591
  1052  00F4  28F6               	goto	u3590
  1053  00F5                     u3591:
  1054  00F5  2BAF               	goto	l5691
  1055  00F6                     u3590:
  1056                           	line	196
  1057                           	
  1058  00F6                     l5577:	
  1059                           ;CLCP001.c: 195: {
  1060                           ;CLCP001.c: 196: _delay((unsigned long)((10)*(8000000/4000.0)));
  1061                           	opt asmopt_off
  1062  00F6  301A               movlw	26
  1063  00F7  00B2               movwf	((??_main+0)+0+1),f
  1064  00F8  30F8               	movlw	248
  1065  00F9  00B1               movwf	((??_main+0)+0),f
  1066  00FA                     u3727:
  1067  00FA  0BB1               	decfsz	((??_main+0)+0),f
  1068  00FB  28FA               	goto	u3727
  1069  00FC  0BB2               	decfsz	((??_main+0)+0+1),f
  1070  00FD  28FA               	goto	u3727
  1071  00FE  0064               	clrwdt
  1072                           opt asmopt_on
  1073                           
  1074                           	line	197
  1075                           	
  1076  00FF                     l5579:	
  1077                           ;CLCP001.c: 197: onewire_sendpacket(SensorAddress,0x00,0x03);
  1078  00FF  1283               	bcf	status, 5	;RP0=0, select bank0
  1079  0100  1303               	bcf	status, 6	;RP1=0, select bank0
  1080  0101  01A4               	clrf	(?_onewire_sendpacket)
  1081  0102  3003               	movlw	(03h)
  1082  0103  00B1               	movwf	(??_main+0)+0
  1083  0104  0831               	movf	(??_main+0)+0,w
  1084  0105  00A5               	movwf	0+(?_onewire_sendpacket)+01h
  1085  0106  0853               	movf	(main@SensorAddress),w
  1086  0107  118A  26BE  118A   	fcall	_onewire_sendpacket
  1087                           	line	198
  1088                           	
  1089  010A                     l5581:	
  1090                           ;CLCP001.c: 198: Temp2L = onewire_listen(0x00);
  1091  010A  3000               	movlw	(0)
  1092  010B  118A  23C9  118A   	fcall	_onewire_listen
  1093  010E  1283               	bcf	status, 5	;RP0=0, select bank0
  1094  010F  1303               	bcf	status, 6	;RP1=0, select bank0
  1095  0110  00B1               	movwf	(??_main+0)+0
  1096  0111  0831               	movf	(??_main+0)+0,w
  1097  0112  00C1               	movwf	(main@Temp2L)
  1098                           	line	199
  1099                           ;CLCP001.c: 199: _delay((unsigned long)((2)*(8000000/4000.0)));
  1100                           	opt asmopt_off
  1101  0113  3006               movlw	6
  1102  0114  00B2               movwf	((??_main+0)+0+1),f
  1103  0115  3030               	movlw	48
  1104  0116  00B1               movwf	((??_main+0)+0),f
  1105  0117                     u3737:
  1106  0117  0BB1               	decfsz	((??_main+0)+0),f
  1107  0118  2917               	goto	u3737
  1108  0119  0BB2               	decfsz	((??_main+0)+0+1),f
  1109  011A  2917               	goto	u3737
  1110  011B  0064               	clrwdt
  1111                           opt asmopt_on
  1112                           
  1113                           	line	200
  1114                           	
  1115  011C                     l5583:	
  1116                           ;CLCP001.c: 200: Temp2H = onewire_listen(0x00);
  1117  011C  3000               	movlw	(0)
  1118  011D  118A  23C9  118A   	fcall	_onewire_listen
  1119  0120  1283               	bcf	status, 5	;RP0=0, select bank0
  1120  0121  1303               	bcf	status, 6	;RP1=0, select bank0
  1121  0122  00B1               	movwf	(??_main+0)+0
  1122  0123  0831               	movf	(??_main+0)+0,w
  1123  0124  00C2               	movwf	(main@Temp2H)
  1124                           	line	201
  1125                           ;CLCP001.c: 201: }
  1126  0125  2927               	goto	l764
  1127                           	line	202
  1128                           	
  1129  0126                     l763:	
  1130                           	line	203
  1131                           ;CLCP001.c: 202: else
  1132                           ;CLCP001.c: 203: continue;
  1133  0126  2BAF               	goto	l5691
  1134                           	
  1135  0127                     l764:	
  1136                           	line	205
  1137                           ;CLCP001.c: 205: if (IDTimeout == 0)
  1138  0127  18F9               	btfsc	(_IDTimeout/8),(_IDTimeout)&7
  1139  0128  292A               	goto	u3601
  1140  0129  292B               	goto	u3600
  1141  012A                     u3601:
  1142  012A  2BAF               	goto	l5691
  1143  012B                     u3600:
  1144                           	line	207
  1145                           	
  1146  012B                     l5585:	
  1147                           ;CLCP001.c: 206: {
  1148                           ;CLCP001.c: 207: _delay((unsigned long)((10)*(8000000/4000.0)));
  1149                           	opt asmopt_off
  1150  012B  301A               movlw	26
  1151  012C  00B2               movwf	((??_main+0)+0+1),f
  1152  012D  30F8               	movlw	248
  1153  012E  00B1               movwf	((??_main+0)+0),f
  1154  012F                     u3747:
  1155  012F  0BB1               	decfsz	((??_main+0)+0),f
  1156  0130  292F               	goto	u3747
  1157  0131  0BB2               	decfsz	((??_main+0)+0+1),f
  1158  0132  292F               	goto	u3747
  1159  0133  0064               	clrwdt
  1160                           opt asmopt_on
  1161                           
  1162                           	line	208
  1163                           	
  1164  0134                     l5587:	
  1165                           ;CLCP001.c: 208: onewire_sendpacket(SensorAddress,0x00,0x04);
  1166  0134  1283               	bcf	status, 5	;RP0=0, select bank0
  1167  0135  1303               	bcf	status, 6	;RP1=0, select bank0
  1168  0136  01A4               	clrf	(?_onewire_sendpacket)
  1169  0137  3004               	movlw	(04h)
  1170  0138  00B1               	movwf	(??_main+0)+0
  1171  0139  0831               	movf	(??_main+0)+0,w
  1172  013A  00A5               	movwf	0+(?_onewire_sendpacket)+01h
  1173  013B  0853               	movf	(main@SensorAddress),w
  1174  013C  118A  26BE  118A   	fcall	_onewire_sendpacket
  1175                           	line	209
  1176                           	
  1177  013F                     l5589:	
  1178                           ;CLCP001.c: 209: Humid2L = onewire_listen(0x00);
  1179  013F  3000               	movlw	(0)
  1180  0140  118A  23C9  118A   	fcall	_onewire_listen
  1181  0143  1283               	bcf	status, 5	;RP0=0, select bank0
  1182  0144  1303               	bcf	status, 6	;RP1=0, select bank0
  1183  0145  00B1               	movwf	(??_main+0)+0
  1184  0146  0831               	movf	(??_main+0)+0,w
  1185  0147  00C3               	movwf	(main@Humid2L)
  1186                           	line	210
  1187                           ;CLCP001.c: 210: _delay((unsigned long)((2)*(8000000/4000.0)));
  1188                           	opt asmopt_off
  1189  0148  3006               movlw	6
  1190  0149  00B2               movwf	((??_main+0)+0+1),f
  1191  014A  3030               	movlw	48
  1192  014B  00B1               movwf	((??_main+0)+0),f
  1193  014C                     u3757:
  1194  014C  0BB1               	decfsz	((??_main+0)+0),f
  1195  014D  294C               	goto	u3757
  1196  014E  0BB2               	decfsz	((??_main+0)+0+1),f
  1197  014F  294C               	goto	u3757
  1198  0150  0064               	clrwdt
  1199                           opt asmopt_on
  1200                           
  1201                           	line	211
  1202                           	
  1203  0151                     l5591:	
  1204                           ;CLCP001.c: 211: Humid2H = onewire_listen(0x00);
  1205  0151  3000               	movlw	(0)
  1206  0152  118A  23C9  118A   	fcall	_onewire_listen
  1207  0155  1283               	bcf	status, 5	;RP0=0, select bank0
  1208  0156  1303               	bcf	status, 6	;RP1=0, select bank0
  1209  0157  00B1               	movwf	(??_main+0)+0
  1210  0158  0831               	movf	(??_main+0)+0,w
  1211  0159  00C4               	movwf	(main@Humid2H)
  1212                           	line	212
  1213                           ;CLCP001.c: 212: }
  1214  015A  295C               	goto	l766
  1215                           	line	213
  1216                           	
  1217  015B                     l765:	
  1218                           	line	214
  1219                           ;CLCP001.c: 213: else
  1220                           ;CLCP001.c: 214: continue;
  1221  015B  2BAF               	goto	l5691
  1222                           	
  1223  015C                     l766:	
  1224                           	line	216
  1225                           ;CLCP001.c: 216: if (IDTimeout == 0)
  1226  015C  18F9               	btfsc	(_IDTimeout/8),(_IDTimeout)&7
  1227  015D  295F               	goto	u3611
  1228  015E  2960               	goto	u3610
  1229  015F                     u3611:
  1230  015F  2BAF               	goto	l5691
  1231  0160                     u3610:
  1232                           	line	218
  1233                           	
  1234  0160                     l5593:	
  1235                           ;CLCP001.c: 217: {
  1236                           ;CLCP001.c: 218: _delay((unsigned long)((10)*(8000000/4000.0)));
  1237                           	opt asmopt_off
  1238  0160  301A               movlw	26
  1239  0161  00B2               movwf	((??_main+0)+0+1),f
  1240  0162  30F8               	movlw	248
  1241  0163  00B1               movwf	((??_main+0)+0),f
  1242  0164                     u3767:
  1243  0164  0BB1               	decfsz	((??_main+0)+0),f
  1244  0165  2964               	goto	u3767
  1245  0166  0BB2               	decfsz	((??_main+0)+0+1),f
  1246  0167  2964               	goto	u3767
  1247  0168  0064               	clrwdt
  1248                           opt asmopt_on
  1249                           
  1250                           	line	219
  1251                           	
  1252  0169                     l5595:	
  1253                           ;CLCP001.c: 219: onewire_sendpacket(SensorAddress,0x00,0x05);
  1254  0169  1283               	bcf	status, 5	;RP0=0, select bank0
  1255  016A  1303               	bcf	status, 6	;RP1=0, select bank0
  1256  016B  01A4               	clrf	(?_onewire_sendpacket)
  1257  016C  3005               	movlw	(05h)
  1258  016D  00B1               	movwf	(??_main+0)+0
  1259  016E  0831               	movf	(??_main+0)+0,w
  1260  016F  00A5               	movwf	0+(?_onewire_sendpacket)+01h
  1261  0170  0853               	movf	(main@SensorAddress),w
  1262  0171  118A  26BE  118A   	fcall	_onewire_sendpacket
  1263                           	line	220
  1264                           	
  1265  0174                     l5597:	
  1266                           ;CLCP001.c: 220: Temp3L = onewire_listen(0x00);
  1267  0174  3000               	movlw	(0)
  1268  0175  118A  23C9  118A   	fcall	_onewire_listen
  1269  0178  1283               	bcf	status, 5	;RP0=0, select bank0
  1270  0179  1303               	bcf	status, 6	;RP1=0, select bank0
  1271  017A  00B1               	movwf	(??_main+0)+0
  1272  017B  0831               	movf	(??_main+0)+0,w
  1273  017C  00C5               	movwf	(main@Temp3L)
  1274                           	line	221
  1275                           ;CLCP001.c: 221: _delay((unsigned long)((2)*(8000000/4000.0)));
  1276                           	opt asmopt_off
  1277  017D  3006               movlw	6
  1278  017E  00B2               movwf	((??_main+0)+0+1),f
  1279  017F  3030               	movlw	48
  1280  0180  00B1               movwf	((??_main+0)+0),f
  1281  0181                     u3777:
  1282  0181  0BB1               	decfsz	((??_main+0)+0),f
  1283  0182  2981               	goto	u3777
  1284  0183  0BB2               	decfsz	((??_main+0)+0+1),f
  1285  0184  2981               	goto	u3777
  1286  0185  0064               	clrwdt
  1287                           opt asmopt_on
  1288                           
  1289                           	line	222
  1290                           	
  1291  0186                     l5599:	
  1292                           ;CLCP001.c: 222: Temp3H = onewire_listen(0x00);
  1293  0186  3000               	movlw	(0)
  1294  0187  118A  23C9  118A   	fcall	_onewire_listen
  1295  018A  1283               	bcf	status, 5	;RP0=0, select bank0
  1296  018B  1303               	bcf	status, 6	;RP1=0, select bank0
  1297  018C  00B1               	movwf	(??_main+0)+0
  1298  018D  0831               	movf	(??_main+0)+0,w
  1299  018E  00C6               	movwf	(main@Temp3H)
  1300                           	line	223
  1301                           ;CLCP001.c: 223: }
  1302  018F  2991               	goto	l768
  1303                           	line	224
  1304                           	
  1305  0190                     l767:	
  1306                           	line	225
  1307                           ;CLCP001.c: 224: else
  1308                           ;CLCP001.c: 225: continue;
  1309  0190  2BAF               	goto	l5691
  1310                           	
  1311  0191                     l768:	
  1312                           	line	227
  1313                           ;CLCP001.c: 227: if (IDTimeout == 0)
  1314  0191  18F9               	btfsc	(_IDTimeout/8),(_IDTimeout)&7
  1315  0192  2994               	goto	u3621
  1316  0193  2995               	goto	u3620
  1317  0194                     u3621:
  1318  0194  2BAF               	goto	l5691
  1319  0195                     u3620:
  1320                           	line	229
  1321                           	
  1322  0195                     l5601:	
  1323                           ;CLCP001.c: 228: {
  1324                           ;CLCP001.c: 229: _delay((unsigned long)((10)*(8000000/4000.0)));
  1325                           	opt asmopt_off
  1326  0195  301A               movlw	26
  1327  0196  00B2               movwf	((??_main+0)+0+1),f
  1328  0197  30F8               	movlw	248
  1329  0198  00B1               movwf	((??_main+0)+0),f
  1330  0199                     u3787:
  1331  0199  0BB1               	decfsz	((??_main+0)+0),f
  1332  019A  2999               	goto	u3787
  1333  019B  0BB2               	decfsz	((??_main+0)+0+1),f
  1334  019C  2999               	goto	u3787
  1335  019D  0064               	clrwdt
  1336                           opt asmopt_on
  1337                           
  1338                           	line	230
  1339                           	
  1340  019E                     l5603:	
  1341                           ;CLCP001.c: 230: onewire_sendpacket(SensorAddress,0x00,0x06);
  1342  019E  1283               	bcf	status, 5	;RP0=0, select bank0
  1343  019F  1303               	bcf	status, 6	;RP1=0, select bank0
  1344  01A0  01A4               	clrf	(?_onewire_sendpacket)
  1345  01A1  3006               	movlw	(06h)
  1346  01A2  00B1               	movwf	(??_main+0)+0
  1347  01A3  0831               	movf	(??_main+0)+0,w
  1348  01A4  00A5               	movwf	0+(?_onewire_sendpacket)+01h
  1349  01A5  0853               	movf	(main@SensorAddress),w
  1350  01A6  118A  26BE  118A   	fcall	_onewire_sendpacket
  1351                           	line	231
  1352                           	
  1353  01A9                     l5605:	
  1354                           ;CLCP001.c: 231: Humid3L = onewire_listen(0x00);
  1355  01A9  3000               	movlw	(0)
  1356  01AA  118A  23C9  118A   	fcall	_onewire_listen
  1357  01AD  1283               	bcf	status, 5	;RP0=0, select bank0
  1358  01AE  1303               	bcf	status, 6	;RP1=0, select bank0
  1359  01AF  00B1               	movwf	(??_main+0)+0
  1360  01B0  0831               	movf	(??_main+0)+0,w
  1361  01B1  00C7               	movwf	(main@Humid3L)
  1362                           	line	232
  1363                           ;CLCP001.c: 232: _delay((unsigned long)((2)*(8000000/4000.0)));
  1364                           	opt asmopt_off
  1365  01B2  3006               movlw	6
  1366  01B3  00B2               movwf	((??_main+0)+0+1),f
  1367  01B4  3030               	movlw	48
  1368  01B5  00B1               movwf	((??_main+0)+0),f
  1369  01B6                     u3797:
  1370  01B6  0BB1               	decfsz	((??_main+0)+0),f
  1371  01B7  29B6               	goto	u3797
  1372  01B8  0BB2               	decfsz	((??_main+0)+0+1),f
  1373  01B9  29B6               	goto	u3797
  1374  01BA  0064               	clrwdt
  1375                           opt asmopt_on
  1376                           
  1377                           	line	233
  1378                           	
  1379  01BB                     l5607:	
  1380                           ;CLCP001.c: 233: Humid3H = onewire_listen(0x00);
  1381  01BB  3000               	movlw	(0)
  1382  01BC  118A  23C9  118A   	fcall	_onewire_listen
  1383  01BF  1283               	bcf	status, 5	;RP0=0, select bank0
  1384  01C0  1303               	bcf	status, 6	;RP1=0, select bank0
  1385  01C1  00B1               	movwf	(??_main+0)+0
  1386  01C2  0831               	movf	(??_main+0)+0,w
  1387  01C3  00C8               	movwf	(main@Humid3H)
  1388                           	line	234
  1389                           ;CLCP001.c: 234: }
  1390  01C4  29C6               	goto	l770
  1391                           	line	235
  1392                           	
  1393  01C5                     l769:	
  1394                           	line	236
  1395                           ;CLCP001.c: 235: else
  1396                           ;CLCP001.c: 236: continue;
  1397  01C5  2BAF               	goto	l5691
  1398                           	
  1399  01C6                     l770:	
  1400                           	line	238
  1401                           ;CLCP001.c: 238: if (IDTimeout == 0)
  1402  01C6  18F9               	btfsc	(_IDTimeout/8),(_IDTimeout)&7
  1403  01C7  29C9               	goto	u3631
  1404  01C8  29CA               	goto	u3630
  1405  01C9                     u3631:
  1406  01C9  2BAF               	goto	l5691
  1407  01CA                     u3630:
  1408                           	line	240
  1409                           	
  1410  01CA                     l5609:	
  1411                           ;CLCP001.c: 239: {
  1412                           ;CLCP001.c: 240: _delay((unsigned long)((10)*(8000000/4000.0)));
  1413                           	opt asmopt_off
  1414  01CA  301A               movlw	26
  1415  01CB  00B2               movwf	((??_main+0)+0+1),f
  1416  01CC  30F8               	movlw	248
  1417  01CD  00B1               movwf	((??_main+0)+0),f
  1418  01CE                     u3807:
  1419  01CE  0BB1               	decfsz	((??_main+0)+0),f
  1420  01CF  29CE               	goto	u3807
  1421  01D0  0BB2               	decfsz	((??_main+0)+0+1),f
  1422  01D1  29CE               	goto	u3807
  1423  01D2  0064               	clrwdt
  1424                           opt asmopt_on
  1425                           
  1426                           	line	241
  1427                           	
  1428  01D3                     l5611:	
  1429                           ;CLCP001.c: 241: onewire_sendpacket(SensorAddress,0x00,0x07);
  1430  01D3  1283               	bcf	status, 5	;RP0=0, select bank0
  1431  01D4  1303               	bcf	status, 6	;RP1=0, select bank0
  1432  01D5  01A4               	clrf	(?_onewire_sendpacket)
  1433  01D6  3007               	movlw	(07h)
  1434  01D7  00B1               	movwf	(??_main+0)+0
  1435  01D8  0831               	movf	(??_main+0)+0,w
  1436  01D9  00A5               	movwf	0+(?_onewire_sendpacket)+01h
  1437  01DA  0853               	movf	(main@SensorAddress),w
  1438  01DB  118A  26BE  118A   	fcall	_onewire_sendpacket
  1439                           	line	242
  1440                           	
  1441  01DE                     l5613:	
  1442                           ;CLCP001.c: 242: Temp4L = onewire_listen(0x00);
  1443  01DE  3000               	movlw	(0)
  1444  01DF  118A  23C9  118A   	fcall	_onewire_listen
  1445  01E2  1283               	bcf	status, 5	;RP0=0, select bank0
  1446  01E3  1303               	bcf	status, 6	;RP1=0, select bank0
  1447  01E4  00B1               	movwf	(??_main+0)+0
  1448  01E5  0831               	movf	(??_main+0)+0,w
  1449  01E6  00C9               	movwf	(main@Temp4L)
  1450                           	line	243
  1451                           ;CLCP001.c: 243: _delay((unsigned long)((2)*(8000000/4000.0)));
  1452                           	opt asmopt_off
  1453  01E7  3006               movlw	6
  1454  01E8  00B2               movwf	((??_main+0)+0+1),f
  1455  01E9  3030               	movlw	48
  1456  01EA  00B1               movwf	((??_main+0)+0),f
  1457  01EB                     u3817:
  1458  01EB  0BB1               	decfsz	((??_main+0)+0),f
  1459  01EC  29EB               	goto	u3817
  1460  01ED  0BB2               	decfsz	((??_main+0)+0+1),f
  1461  01EE  29EB               	goto	u3817
  1462  01EF  0064               	clrwdt
  1463                           opt asmopt_on
  1464                           
  1465                           	line	244
  1466                           	
  1467  01F0                     l5615:	
  1468                           ;CLCP001.c: 244: Temp4H = onewire_listen(0x00);
  1469  01F0  3000               	movlw	(0)
  1470  01F1  118A  23C9  118A   	fcall	_onewire_listen
  1471  01F4  1283               	bcf	status, 5	;RP0=0, select bank0
  1472  01F5  1303               	bcf	status, 6	;RP1=0, select bank0
  1473  01F6  00B1               	movwf	(??_main+0)+0
  1474  01F7  0831               	movf	(??_main+0)+0,w
  1475  01F8  00CA               	movwf	(main@Temp4H)
  1476                           	line	245
  1477                           ;CLCP001.c: 245: }
  1478  01F9  29FB               	goto	l772
  1479                           	line	246
  1480                           	
  1481  01FA                     l771:	
  1482                           	line	247
  1483                           ;CLCP001.c: 246: else
  1484                           ;CLCP001.c: 247: continue;
  1485  01FA  2BAF               	goto	l5691
  1486                           	
  1487  01FB                     l772:	
  1488                           	line	249
  1489                           ;CLCP001.c: 249: if (IDTimeout == 0)
  1490  01FB  18F9               	btfsc	(_IDTimeout/8),(_IDTimeout)&7
  1491  01FC  29FE               	goto	u3641
  1492  01FD  29FF               	goto	u3640
  1493  01FE                     u3641:
  1494  01FE  2BAF               	goto	l5691
  1495  01FF                     u3640:
  1496                           	line	251
  1497                           	
  1498  01FF                     l5617:	
  1499                           ;CLCP001.c: 250: {
  1500                           ;CLCP001.c: 251: _delay((unsigned long)((10)*(8000000/4000.0)));
  1501                           	opt asmopt_off
  1502  01FF  301A               movlw	26
  1503  0200  00B2               movwf	((??_main+0)+0+1),f
  1504  0201  30F8               	movlw	248
  1505  0202  00B1               movwf	((??_main+0)+0),f
  1506  0203                     u3827:
  1507  0203  0BB1               	decfsz	((??_main+0)+0),f
  1508  0204  2A03               	goto	u3827
  1509  0205  0BB2               	decfsz	((??_main+0)+0+1),f
  1510  0206  2A03               	goto	u3827
  1511  0207  0064               	clrwdt
  1512                           opt asmopt_on
  1513                           
  1514                           	line	252
  1515                           	
  1516  0208                     l5619:	
  1517                           ;CLCP001.c: 252: onewire_sendpacket(SensorAddress,0x00,0x08);
  1518  0208  1283               	bcf	status, 5	;RP0=0, select bank0
  1519  0209  1303               	bcf	status, 6	;RP1=0, select bank0
  1520  020A  01A4               	clrf	(?_onewire_sendpacket)
  1521  020B  3008               	movlw	(08h)
  1522  020C  00B1               	movwf	(??_main+0)+0
  1523  020D  0831               	movf	(??_main+0)+0,w
  1524  020E  00A5               	movwf	0+(?_onewire_sendpacket)+01h
  1525  020F  0853               	movf	(main@SensorAddress),w
  1526  0210  118A  26BE  118A   	fcall	_onewire_sendpacket
  1527                           	line	253
  1528                           	
  1529  0213                     l5621:	
  1530                           ;CLCP001.c: 253: Humid4L = onewire_listen(0x00);
  1531  0213  3000               	movlw	(0)
  1532  0214  118A  23C9  118A   	fcall	_onewire_listen
  1533  0217  1283               	bcf	status, 5	;RP0=0, select bank0
  1534  0218  1303               	bcf	status, 6	;RP1=0, select bank0
  1535  0219  00B1               	movwf	(??_main+0)+0
  1536  021A  0831               	movf	(??_main+0)+0,w
  1537  021B  00CB               	movwf	(main@Humid4L)
  1538                           	line	254
  1539                           ;CLCP001.c: 254: _delay((unsigned long)((2)*(8000000/4000.0)));
  1540                           	opt asmopt_off
  1541  021C  3006               movlw	6
  1542  021D  00B2               movwf	((??_main+0)+0+1),f
  1543  021E  3030               	movlw	48
  1544  021F  00B1               movwf	((??_main+0)+0),f
  1545  0220                     u3837:
  1546  0220  0BB1               	decfsz	((??_main+0)+0),f
  1547  0221  2A20               	goto	u3837
  1548  0222  0BB2               	decfsz	((??_main+0)+0+1),f
  1549  0223  2A20               	goto	u3837
  1550  0224  0064               	clrwdt
  1551                           opt asmopt_on
  1552                           
  1553                           	line	255
  1554                           	
  1555  0225                     l5623:	
  1556                           ;CLCP001.c: 255: Humid4H = onewire_listen(0x00);
  1557  0225  3000               	movlw	(0)
  1558  0226  118A  23C9  118A   	fcall	_onewire_listen
  1559  0229  1283               	bcf	status, 5	;RP0=0, select bank0
  1560  022A  1303               	bcf	status, 6	;RP1=0, select bank0
  1561  022B  00B1               	movwf	(??_main+0)+0
  1562  022C  0831               	movf	(??_main+0)+0,w
  1563  022D  00CC               	movwf	(main@Humid4H)
  1564                           	line	256
  1565                           ;CLCP001.c: 256: }
  1566  022E  2A30               	goto	l5625
  1567                           	line	257
  1568                           	
  1569  022F                     l773:	
  1570                           	line	258
  1571                           ;CLCP001.c: 257: else
  1572                           ;CLCP001.c: 258: continue;
  1573  022F  2BAF               	goto	l5691
  1574                           	
  1575  0230                     l774:	
  1576                           	line	260
  1577                           	
  1578  0230                     l5625:	
  1579                           ;CLCP001.c: 260: _delay((unsigned long)((10)*(8000000/4000.0)));
  1580                           	opt asmopt_off
  1581  0230  301A               movlw	26
  1582  0231  00B2               movwf	((??_main+0)+0+1),f
  1583  0232  30F8               	movlw	248
  1584  0233  00B1               movwf	((??_main+0)+0),f
  1585  0234                     u3847:
  1586  0234  0BB1               	decfsz	((??_main+0)+0),f
  1587  0235  2A34               	goto	u3847
  1588  0236  0BB2               	decfsz	((??_main+0)+0+1),f
  1589  0237  2A34               	goto	u3847
  1590  0238  0064               	clrwdt
  1591                           opt asmopt_on
  1592                           
  1593                           	line	263
  1594                           	
  1595  0239                     l5627:	
  1596                           ;CLCP001.c: 263: BreakOnTimeout = 0;
  1597  0239  1079               	bcf	(_BreakOnTimeout/8),(_BreakOnTimeout)&7
  1598                           	line	264
  1599                           ;CLCP001.c: 264: TimeoutMultiplier = 1;
  1600  023A  3001               	movlw	low(01h)
  1601  023B  1283               	bcf	status, 5	;RP0=0, select bank0
  1602  023C  1303               	bcf	status, 6	;RP1=0, select bank0
  1603  023D  00DA               	movwf	(_TimeoutMultiplier)
  1604  023E  3000               	movlw	high(01h)
  1605  023F  00DB               	movwf	((_TimeoutMultiplier))+1
  1606                           	line	274
  1607                           ;CLCP001.c: 268: unsigned char Humidity[4][2];
  1608                           ;CLCP001.c: 269: unsigned int Humid;
  1609                           ;CLCP001.c: 270: unsigned char HumidL;
  1610                           ;CLCP001.c: 271: unsigned char HumidH;
  1611                           ;CLCP001.c: 274: Humidity[0][0] = Humid1L;
  1612  0240  083F               	movf	(main@Humid1L),w
  1613  0241  00B1               	movwf	(??_main+0)+0
  1614  0242  0831               	movf	(??_main+0)+0,w
  1615  0243  00B5               	movwf	(main@Humidity)
  1616                           	line	275
  1617                           ;CLCP001.c: 275: Humidity[1][0] = Humid2L;
  1618  0244  0843               	movf	(main@Humid2L),w
  1619  0245  00B1               	movwf	(??_main+0)+0
  1620  0246  0831               	movf	(??_main+0)+0,w
  1621  0247  00B7               	movwf	0+(main@Humidity)+02h
  1622                           	line	276
  1623                           ;CLCP001.c: 276: Humidity[2][0] = Humid3L;
  1624  0248  0847               	movf	(main@Humid3L),w
  1625  0249  00B1               	movwf	(??_main+0)+0
  1626  024A  0831               	movf	(??_main+0)+0,w
  1627  024B  00B9               	movwf	0+(main@Humidity)+04h
  1628                           	line	277
  1629                           ;CLCP001.c: 277: Humidity[3][0] = Humid4L;
  1630  024C  084B               	movf	(main@Humid4L),w
  1631  024D  00B1               	movwf	(??_main+0)+0
  1632  024E  0831               	movf	(??_main+0)+0,w
  1633  024F  00BB               	movwf	0+(main@Humidity)+06h
  1634                           	line	279
  1635                           ;CLCP001.c: 279: Humidity[0][1] = Humid1H;
  1636  0250  0840               	movf	(main@Humid1H),w
  1637  0251  00B1               	movwf	(??_main+0)+0
  1638  0252  0831               	movf	(??_main+0)+0,w
  1639  0253  00B6               	movwf	0+(main@Humidity)+01h
  1640                           	line	280
  1641                           ;CLCP001.c: 280: Humidity[1][1] = Humid2H;
  1642  0254  0844               	movf	(main@Humid2H),w
  1643  0255  00B1               	movwf	(??_main+0)+0
  1644  0256  0831               	movf	(??_main+0)+0,w
  1645  0257  00B8               	movwf	0+(main@Humidity)+03h
  1646                           	line	281
  1647                           ;CLCP001.c: 281: Humidity[2][1] = Humid3H;
  1648  0258  0848               	movf	(main@Humid3H),w
  1649  0259  00B1               	movwf	(??_main+0)+0
  1650  025A  0831               	movf	(??_main+0)+0,w
  1651  025B  00BA               	movwf	0+(main@Humidity)+05h
  1652                           	line	282
  1653                           ;CLCP001.c: 282: Humidity[3][1] = Humid4H;
  1654  025C  084C               	movf	(main@Humid4H),w
  1655  025D  00B1               	movwf	(??_main+0)+0
  1656  025E  0831               	movf	(??_main+0)+0,w
  1657  025F  00BC               	movwf	0+(main@Humidity)+07h
  1658                           	line	284
  1659                           	
  1660  0260                     l5629:	
  1661                           ;CLCP001.c: 284: Humid = CalculateAverageHumidity(Humidity);
  1662  0260  3035               	movlw	(main@Humidity)&0ffh
  1663  0261  118A  2455  118A   	fcall	_CalculateAverageHumidity
  1664  0264  1283               	bcf	status, 5	;RP0=0, select bank0
  1665  0265  1303               	bcf	status, 6	;RP1=0, select bank0
  1666  0266  0824               	movf	(1+(?_CalculateAverageHumidity)),w
  1667  0267  01D0               	clrf	(main@Humid+1)
  1668  0268  07D0               	addwf	(main@Humid+1)
  1669  0269  0823               	movf	(0+(?_CalculateAverageHumidity)),w
  1670  026A  01CF               	clrf	(main@Humid)
  1671  026B  07CF               	addwf	(main@Humid)
  1672                           
  1673                           	line	285
  1674                           	
  1675  026C                     l5631:	
  1676                           ;CLCP001.c: 285: HumidL = (Humid >> 8);
  1677  026C  0850               	movf	(main@Humid+1),w
  1678  026D  00B1               	movwf	(??_main+0)+0
  1679  026E  0831               	movf	(??_main+0)+0,w
  1680  026F  00CD               	movwf	(main@HumidL)
  1681                           	line	286
  1682                           	
  1683  0270                     l5633:	
  1684                           ;CLCP001.c: 286: HumidH = (Humid & 0xFF);
  1685  0270  084F               	movf	(main@Humid),w
  1686  0271  00B1               	movwf	(??_main+0)+0
  1687  0272  0831               	movf	(??_main+0)+0,w
  1688  0273  00CE               	movwf	(main@HumidH)
  1689                           	line	289
  1690                           	
  1691  0274                     l5635:	
  1692                           ;CLCP001.c: 289: onewire_sendpacket(0xF0,0x00,0x01);
  1693  0274  01A4               	clrf	(?_onewire_sendpacket)
  1694  0275  01A5               	clrf	0+(?_onewire_sendpacket)+01h
  1695  0276  1403               	bsf	status,0
  1696  0277  0DA5               	rlf	0+(?_onewire_sendpacket)+01h,f
  1697  0278  30F0               	movlw	(0F0h)
  1698  0279  118A  26BE  118A   	fcall	_onewire_sendpacket
  1699                           	line	290
  1700                           	
  1701  027C                     l5637:	
  1702                           ;CLCP001.c: 290: _delay((unsigned long)((10)*(8000000/4000.0)));
  1703                           	opt asmopt_off
  1704  027C  301A               movlw	26
  1705  027D  1283               	bcf	status, 5	;RP0=0, select bank0
  1706  027E  1303               	bcf	status, 6	;RP1=0, select bank0
  1707  027F  00B2               movwf	((??_main+0)+0+1),f
  1708  0280  30F8               	movlw	248
  1709  0281  00B1               movwf	((??_main+0)+0),f
  1710  0282                     u3857:
  1711  0282  0BB1               	decfsz	((??_main+0)+0),f
  1712  0283  2A82               	goto	u3857
  1713  0284  0BB2               	decfsz	((??_main+0)+0+1),f
  1714  0285  2A82               	goto	u3857
  1715  0286  0064               	clrwdt
  1716                           opt asmopt_on
  1717                           
  1718                           	line	291
  1719                           	
  1720  0287                     l5639:	
  1721                           ;CLCP001.c: 291: onewire_sendpacket(0xF0,0x00,i);
  1722  0287  1283               	bcf	status, 5	;RP0=0, select bank0
  1723  0288  1303               	bcf	status, 6	;RP1=0, select bank0
  1724  0289  01A4               	clrf	(?_onewire_sendpacket)
  1725  028A  0851               	movf	(main@i),w
  1726  028B  00B1               	movwf	(??_main+0)+0
  1727  028C  0831               	movf	(??_main+0)+0,w
  1728  028D  00A5               	movwf	0+(?_onewire_sendpacket)+01h
  1729  028E  30F0               	movlw	(0F0h)
  1730  028F  118A  26BE  118A   	fcall	_onewire_sendpacket
  1731                           	line	292
  1732                           	
  1733  0292                     l5641:	
  1734                           ;CLCP001.c: 292: _delay((unsigned long)((10)*(8000000/4000.0)));
  1735                           	opt asmopt_off
  1736  0292  301A               movlw	26
  1737  0293  1283               	bcf	status, 5	;RP0=0, select bank0
  1738  0294  1303               	bcf	status, 6	;RP1=0, select bank0
  1739  0295  00B2               movwf	((??_main+0)+0+1),f
  1740  0296  30F8               	movlw	248
  1741  0297  00B1               movwf	((??_main+0)+0),f
  1742  0298                     u3867:
  1743  0298  0BB1               	decfsz	((??_main+0)+0),f
  1744  0299  2A98               	goto	u3867
  1745  029A  0BB2               	decfsz	((??_main+0)+0+1),f
  1746  029B  2A98               	goto	u3867
  1747  029C  0064               	clrwdt
  1748                           opt asmopt_on
  1749                           
  1750                           	line	293
  1751                           	
  1752  029D                     l5643:	
  1753                           ;CLCP001.c: 293: onewire_sendpacket(0xF0,0x00,Temp1L);
  1754  029D  1283               	bcf	status, 5	;RP0=0, select bank0
  1755  029E  1303               	bcf	status, 6	;RP1=0, select bank0
  1756  029F  01A4               	clrf	(?_onewire_sendpacket)
  1757  02A0  083D               	movf	(main@Temp1L),w
  1758  02A1  00B1               	movwf	(??_main+0)+0
  1759  02A2  0831               	movf	(??_main+0)+0,w
  1760  02A3  00A5               	movwf	0+(?_onewire_sendpacket)+01h
  1761  02A4  30F0               	movlw	(0F0h)
  1762  02A5  118A  26BE  118A   	fcall	_onewire_sendpacket
  1763                           	line	294
  1764                           	
  1765  02A8                     l5645:	
  1766                           ;CLCP001.c: 294: _delay((unsigned long)((10)*(8000000/4000.0)));
  1767                           	opt asmopt_off
  1768  02A8  301A               movlw	26
  1769  02A9  1283               	bcf	status, 5	;RP0=0, select bank0
  1770  02AA  1303               	bcf	status, 6	;RP1=0, select bank0
  1771  02AB  00B2               movwf	((??_main+0)+0+1),f
  1772  02AC  30F8               	movlw	248
  1773  02AD  00B1               movwf	((??_main+0)+0),f
  1774  02AE                     u3877:
  1775  02AE  0BB1               	decfsz	((??_main+0)+0),f
  1776  02AF  2AAE               	goto	u3877
  1777  02B0  0BB2               	decfsz	((??_main+0)+0+1),f
  1778  02B1  2AAE               	goto	u3877
  1779  02B2  0064               	clrwdt
  1780                           opt asmopt_on
  1781                           
  1782                           	line	295
  1783                           	
  1784  02B3                     l5647:	
  1785                           ;CLCP001.c: 295: onewire_sendpacket(0xF0,0x00,Temp1H);
  1786  02B3  1283               	bcf	status, 5	;RP0=0, select bank0
  1787  02B4  1303               	bcf	status, 6	;RP1=0, select bank0
  1788  02B5  01A4               	clrf	(?_onewire_sendpacket)
  1789  02B6  083E               	movf	(main@Temp1H),w
  1790  02B7  00B1               	movwf	(??_main+0)+0
  1791  02B8  0831               	movf	(??_main+0)+0,w
  1792  02B9  00A5               	movwf	0+(?_onewire_sendpacket)+01h
  1793  02BA  30F0               	movlw	(0F0h)
  1794  02BB  118A  26BE  118A   	fcall	_onewire_sendpacket
  1795                           	line	296
  1796                           	
  1797  02BE                     l5649:	
  1798                           ;CLCP001.c: 296: _delay((unsigned long)((10)*(8000000/4000.0)));
  1799                           	opt asmopt_off
  1800  02BE  301A               movlw	26
  1801  02BF  1283               	bcf	status, 5	;RP0=0, select bank0
  1802  02C0  1303               	bcf	status, 6	;RP1=0, select bank0
  1803  02C1  00B2               movwf	((??_main+0)+0+1),f
  1804  02C2  30F8               	movlw	248
  1805  02C3  00B1               movwf	((??_main+0)+0),f
  1806  02C4                     u3887:
  1807  02C4  0BB1               	decfsz	((??_main+0)+0),f
  1808  02C5  2AC4               	goto	u3887
  1809  02C6  0BB2               	decfsz	((??_main+0)+0+1),f
  1810  02C7  2AC4               	goto	u3887
  1811  02C8  0064               	clrwdt
  1812                           opt asmopt_on
  1813                           
  1814                           	line	297
  1815                           	
  1816  02C9                     l5651:	
  1817                           ;CLCP001.c: 297: onewire_sendpacket(0xF0,0x00,Temp2L);
  1818  02C9  1283               	bcf	status, 5	;RP0=0, select bank0
  1819  02CA  1303               	bcf	status, 6	;RP1=0, select bank0
  1820  02CB  01A4               	clrf	(?_onewire_sendpacket)
  1821  02CC  0841               	movf	(main@Temp2L),w
  1822  02CD  00B1               	movwf	(??_main+0)+0
  1823  02CE  0831               	movf	(??_main+0)+0,w
  1824  02CF  00A5               	movwf	0+(?_onewire_sendpacket)+01h
  1825  02D0  30F0               	movlw	(0F0h)
  1826  02D1  118A  26BE  118A   	fcall	_onewire_sendpacket
  1827                           	line	298
  1828                           	
  1829  02D4                     l5653:	
  1830                           ;CLCP001.c: 298: _delay((unsigned long)((10)*(8000000/4000.0)));
  1831                           	opt asmopt_off
  1832  02D4  301A               movlw	26
  1833  02D5  1283               	bcf	status, 5	;RP0=0, select bank0
  1834  02D6  1303               	bcf	status, 6	;RP1=0, select bank0
  1835  02D7  00B2               movwf	((??_main+0)+0+1),f
  1836  02D8  30F8               	movlw	248
  1837  02D9  00B1               movwf	((??_main+0)+0),f
  1838  02DA                     u3897:
  1839  02DA  0BB1               	decfsz	((??_main+0)+0),f
  1840  02DB  2ADA               	goto	u3897
  1841  02DC  0BB2               	decfsz	((??_main+0)+0+1),f
  1842  02DD  2ADA               	goto	u3897
  1843  02DE  0064               	clrwdt
  1844                           opt asmopt_on
  1845                           
  1846                           	line	299
  1847                           	
  1848  02DF                     l5655:	
  1849                           ;CLCP001.c: 299: onewire_sendpacket(0xF0,0x00,Temp2H);
  1850  02DF  1283               	bcf	status, 5	;RP0=0, select bank0
  1851  02E0  1303               	bcf	status, 6	;RP1=0, select bank0
  1852  02E1  01A4               	clrf	(?_onewire_sendpacket)
  1853  02E2  0842               	movf	(main@Temp2H),w
  1854  02E3  00B1               	movwf	(??_main+0)+0
  1855  02E4  0831               	movf	(??_main+0)+0,w
  1856  02E5  00A5               	movwf	0+(?_onewire_sendpacket)+01h
  1857  02E6  30F0               	movlw	(0F0h)
  1858  02E7  118A  26BE  118A   	fcall	_onewire_sendpacket
  1859                           	line	300
  1860                           	
  1861  02EA                     l5657:	
  1862                           ;CLCP001.c: 300: _delay((unsigned long)((10)*(8000000/4000.0)));
  1863                           	opt asmopt_off
  1864  02EA  301A               movlw	26
  1865  02EB  1283               	bcf	status, 5	;RP0=0, select bank0
  1866  02EC  1303               	bcf	status, 6	;RP1=0, select bank0
  1867  02ED  00B2               movwf	((??_main+0)+0+1),f
  1868  02EE  30F8               	movlw	248
  1869  02EF  00B1               movwf	((??_main+0)+0),f
  1870  02F0                     u3907:
  1871  02F0  0BB1               	decfsz	((??_main+0)+0),f
  1872  02F1  2AF0               	goto	u3907
  1873  02F2  0BB2               	decfsz	((??_main+0)+0+1),f
  1874  02F3  2AF0               	goto	u3907
  1875  02F4  0064               	clrwdt
  1876                           opt asmopt_on
  1877                           
  1878                           	line	301
  1879                           	
  1880  02F5                     l5659:	
  1881                           ;CLCP001.c: 301: onewire_sendpacket(0xF0,0x00,Temp3L);
  1882  02F5  1283               	bcf	status, 5	;RP0=0, select bank0
  1883  02F6  1303               	bcf	status, 6	;RP1=0, select bank0
  1884  02F7  01A4               	clrf	(?_onewire_sendpacket)
  1885  02F8  0845               	movf	(main@Temp3L),w
  1886  02F9  00B1               	movwf	(??_main+0)+0
  1887  02FA  0831               	movf	(??_main+0)+0,w
  1888  02FB  00A5               	movwf	0+(?_onewire_sendpacket)+01h
  1889  02FC  30F0               	movlw	(0F0h)
  1890  02FD  118A  26BE  118A   	fcall	_onewire_sendpacket
  1891                           	line	302
  1892                           	
  1893  0300                     l5661:	
  1894                           ;CLCP001.c: 302: _delay((unsigned long)((10)*(8000000/4000.0)));
  1895                           	opt asmopt_off
  1896  0300  301A               movlw	26
  1897  0301  1283               	bcf	status, 5	;RP0=0, select bank0
  1898  0302  1303               	bcf	status, 6	;RP1=0, select bank0
  1899  0303  00B2               movwf	((??_main+0)+0+1),f
  1900  0304  30F8               	movlw	248
  1901  0305  00B1               movwf	((??_main+0)+0),f
  1902  0306                     u3917:
  1903  0306  0BB1               	decfsz	((??_main+0)+0),f
  1904  0307  2B06               	goto	u3917
  1905  0308  0BB2               	decfsz	((??_main+0)+0+1),f
  1906  0309  2B06               	goto	u3917
  1907  030A  0064               	clrwdt
  1908                           opt asmopt_on
  1909                           
  1910                           	line	303
  1911                           	
  1912  030B                     l5663:	
  1913                           ;CLCP001.c: 303: onewire_sendpacket(0xF0,0x00,Temp3H);
  1914  030B  1283               	bcf	status, 5	;RP0=0, select bank0
  1915  030C  1303               	bcf	status, 6	;RP1=0, select bank0
  1916  030D  01A4               	clrf	(?_onewire_sendpacket)
  1917  030E  0846               	movf	(main@Temp3H),w
  1918  030F  00B1               	movwf	(??_main+0)+0
  1919  0310  0831               	movf	(??_main+0)+0,w
  1920  0311  00A5               	movwf	0+(?_onewire_sendpacket)+01h
  1921  0312  30F0               	movlw	(0F0h)
  1922  0313  118A  26BE  118A   	fcall	_onewire_sendpacket
  1923                           	line	304
  1924                           	
  1925  0316                     l5665:	
  1926                           ;CLCP001.c: 304: _delay((unsigned long)((10)*(8000000/4000.0)));
  1927                           	opt asmopt_off
  1928  0316  301A               movlw	26
  1929  0317  1283               	bcf	status, 5	;RP0=0, select bank0
  1930  0318  1303               	bcf	status, 6	;RP1=0, select bank0
  1931  0319  00B2               movwf	((??_main+0)+0+1),f
  1932  031A  30F8               	movlw	248
  1933  031B  00B1               movwf	((??_main+0)+0),f
  1934  031C                     u3927:
  1935  031C  0BB1               	decfsz	((??_main+0)+0),f
  1936  031D  2B1C               	goto	u3927
  1937  031E  0BB2               	decfsz	((??_main+0)+0+1),f
  1938  031F  2B1C               	goto	u3927
  1939  0320  0064               	clrwdt
  1940                           opt asmopt_on
  1941                           
  1942                           	line	305
  1943                           	
  1944  0321                     l5667:	
  1945                           ;CLCP001.c: 305: onewire_sendpacket(0xF0,0x00,Temp4L);
  1946  0321  1283               	bcf	status, 5	;RP0=0, select bank0
  1947  0322  1303               	bcf	status, 6	;RP1=0, select bank0
  1948  0323  01A4               	clrf	(?_onewire_sendpacket)
  1949  0324  0849               	movf	(main@Temp4L),w
  1950  0325  00B1               	movwf	(??_main+0)+0
  1951  0326  0831               	movf	(??_main+0)+0,w
  1952  0327  00A5               	movwf	0+(?_onewire_sendpacket)+01h
  1953  0328  30F0               	movlw	(0F0h)
  1954  0329  118A  26BE  118A   	fcall	_onewire_sendpacket
  1955                           	line	306
  1956                           	
  1957  032C                     l5669:	
  1958                           ;CLCP001.c: 306: _delay((unsigned long)((10)*(8000000/4000.0)));
  1959                           	opt asmopt_off
  1960  032C  301A               movlw	26
  1961  032D  1283               	bcf	status, 5	;RP0=0, select bank0
  1962  032E  1303               	bcf	status, 6	;RP1=0, select bank0
  1963  032F  00B2               movwf	((??_main+0)+0+1),f
  1964  0330  30F8               	movlw	248
  1965  0331  00B1               movwf	((??_main+0)+0),f
  1966  0332                     u3937:
  1967  0332  0BB1               	decfsz	((??_main+0)+0),f
  1968  0333  2B32               	goto	u3937
  1969  0334  0BB2               	decfsz	((??_main+0)+0+1),f
  1970  0335  2B32               	goto	u3937
  1971  0336  0064               	clrwdt
  1972                           opt asmopt_on
  1973                           
  1974                           	line	307
  1975                           	
  1976  0337                     l5671:	
  1977                           ;CLCP001.c: 307: onewire_sendpacket(0xF0,0x00,Temp4H);
  1978  0337  1283               	bcf	status, 5	;RP0=0, select bank0
  1979  0338  1303               	bcf	status, 6	;RP1=0, select bank0
  1980  0339  01A4               	clrf	(?_onewire_sendpacket)
  1981  033A  084A               	movf	(main@Temp4H),w
  1982  033B  00B1               	movwf	(??_main+0)+0
  1983  033C  0831               	movf	(??_main+0)+0,w
  1984  033D  00A5               	movwf	0+(?_onewire_sendpacket)+01h
  1985  033E  30F0               	movlw	(0F0h)
  1986  033F  118A  26BE  118A   	fcall	_onewire_sendpacket
  1987                           	line	308
  1988                           	
  1989  0342                     l5673:	
  1990                           ;CLCP001.c: 308: _delay((unsigned long)((10)*(8000000/4000.0)));
  1991                           	opt asmopt_off
  1992  0342  301A               movlw	26
  1993  0343  1283               	bcf	status, 5	;RP0=0, select bank0
  1994  0344  1303               	bcf	status, 6	;RP1=0, select bank0
  1995  0345  00B2               movwf	((??_main+0)+0+1),f
  1996  0346  30F8               	movlw	248
  1997  0347  00B1               movwf	((??_main+0)+0),f
  1998  0348                     u3947:
  1999  0348  0BB1               	decfsz	((??_main+0)+0),f
  2000  0349  2B48               	goto	u3947
  2001  034A  0BB2               	decfsz	((??_main+0)+0+1),f
  2002  034B  2B48               	goto	u3947
  2003  034C  0064               	clrwdt
  2004                           opt asmopt_on
  2005                           
  2006                           	line	309
  2007                           	
  2008  034D                     l5675:	
  2009                           ;CLCP001.c: 309: onewire_sendpacket(0xF0,0x00,HumidL);
  2010  034D  1283               	bcf	status, 5	;RP0=0, select bank0
  2011  034E  1303               	bcf	status, 6	;RP1=0, select bank0
  2012  034F  01A4               	clrf	(?_onewire_sendpacket)
  2013  0350  084D               	movf	(main@HumidL),w
  2014  0351  00B1               	movwf	(??_main+0)+0
  2015  0352  0831               	movf	(??_main+0)+0,w
  2016  0353  00A5               	movwf	0+(?_onewire_sendpacket)+01h
  2017  0354  30F0               	movlw	(0F0h)
  2018  0355  118A  26BE  118A   	fcall	_onewire_sendpacket
  2019                           	line	310
  2020                           	
  2021  0358                     l5677:	
  2022                           ;CLCP001.c: 310: _delay((unsigned long)((10)*(8000000/4000.0)));
  2023                           	opt asmopt_off
  2024  0358  301A               movlw	26
  2025  0359  1283               	bcf	status, 5	;RP0=0, select bank0
  2026  035A  1303               	bcf	status, 6	;RP1=0, select bank0
  2027  035B  00B2               movwf	((??_main+0)+0+1),f
  2028  035C  30F8               	movlw	248
  2029  035D  00B1               movwf	((??_main+0)+0),f
  2030  035E                     u3957:
  2031  035E  0BB1               	decfsz	((??_main+0)+0),f
  2032  035F  2B5E               	goto	u3957
  2033  0360  0BB2               	decfsz	((??_main+0)+0+1),f
  2034  0361  2B5E               	goto	u3957
  2035  0362  0064               	clrwdt
  2036                           opt asmopt_on
  2037                           
  2038                           	line	311
  2039                           	
  2040  0363                     l5679:	
  2041                           ;CLCP001.c: 311: onewire_sendpacket(0xF0,0x00,HumidH);
  2042  0363  1283               	bcf	status, 5	;RP0=0, select bank0
  2043  0364  1303               	bcf	status, 6	;RP1=0, select bank0
  2044  0365  01A4               	clrf	(?_onewire_sendpacket)
  2045  0366  084E               	movf	(main@HumidH),w
  2046  0367  00B1               	movwf	(??_main+0)+0
  2047  0368  0831               	movf	(??_main+0)+0,w
  2048  0369  00A5               	movwf	0+(?_onewire_sendpacket)+01h
  2049  036A  30F0               	movlw	(0F0h)
  2050  036B  118A  26BE  118A   	fcall	_onewire_sendpacket
  2051                           	line	314
  2052                           	
  2053  036E                     l5681:	
  2054                           ;CLCP001.c: 314: _delay((unsigned long)((1000)*(8000000/4000.0)));
  2055                           	opt asmopt_off
  2056  036E  300B               movlw  11
  2057  036F  1283               	bcf	status, 5	;RP0=0, select bank0
  2058  0370  1303               	bcf	status, 6	;RP1=0, select bank0
  2059  0371  00B3               movwf	((??_main+0)+0+2),f
  2060  0372  3026               movlw	38
  2061  0373  00B2               movwf	((??_main+0)+0+1),f
  2062  0374  3066               	movlw	102
  2063  0375  00B1               movwf	((??_main+0)+0),f
  2064  0376                     u3967:
  2065  0376  0BB1               	decfsz	((??_main+0)+0),f
  2066  0377  2B76               	goto	u3967
  2067  0378  0BB2               	decfsz	((??_main+0)+0+1),f
  2068  0379  2B76               	goto	u3967
  2069  037A  0BB3               	decfsz	((??_main+0)+0+2),f
  2070  037B  2B76               	goto	u3967
  2071  037C  2B7D               	nop2
  2072                           opt asmopt_on
  2073                           
  2074                           	line	315
  2075                           	
  2076  037D                     l5683:	
  2077                           ;CLCP001.c: 315: onewire_sendpacket(0xF0,0x00,0x02);
  2078  037D  1283               	bcf	status, 5	;RP0=0, select bank0
  2079  037E  1303               	bcf	status, 6	;RP1=0, select bank0
  2080  037F  01A4               	clrf	(?_onewire_sendpacket)
  2081  0380  3002               	movlw	(02h)
  2082  0381  00B1               	movwf	(??_main+0)+0
  2083  0382  0831               	movf	(??_main+0)+0,w
  2084  0383  00A5               	movwf	0+(?_onewire_sendpacket)+01h
  2085  0384  30F0               	movlw	(0F0h)
  2086  0385  118A  26BE  118A   	fcall	_onewire_sendpacket
  2087                           	line	316
  2088                           	
  2089  0388                     l5685:	
  2090                           ;CLCP001.c: 316: _delay((unsigned long)((10)*(8000000/4000.0)));
  2091                           	opt asmopt_off
  2092  0388  301A               movlw	26
  2093  0389  1283               	bcf	status, 5	;RP0=0, select bank0
  2094  038A  1303               	bcf	status, 6	;RP1=0, select bank0
  2095  038B  00B2               movwf	((??_main+0)+0+1),f
  2096  038C  30F8               	movlw	248
  2097  038D  00B1               movwf	((??_main+0)+0),f
  2098  038E                     u3977:
  2099  038E  0BB1               	decfsz	((??_main+0)+0),f
  2100  038F  2B8E               	goto	u3977
  2101  0390  0BB2               	decfsz	((??_main+0)+0+1),f
  2102  0391  2B8E               	goto	u3977
  2103  0392  0064               	clrwdt
  2104                           opt asmopt_on
  2105                           
  2106                           	line	317
  2107                           	
  2108  0393                     l5687:	
  2109                           ;CLCP001.c: 317: onewire_sendpacket(0xF0,0x00,i);
  2110  0393  1283               	bcf	status, 5	;RP0=0, select bank0
  2111  0394  1303               	bcf	status, 6	;RP1=0, select bank0
  2112  0395  01A4               	clrf	(?_onewire_sendpacket)
  2113  0396  0851               	movf	(main@i),w
  2114  0397  00B1               	movwf	(??_main+0)+0
  2115  0398  0831               	movf	(??_main+0)+0,w
  2116  0399  00A5               	movwf	0+(?_onewire_sendpacket)+01h
  2117  039A  30F0               	movlw	(0F0h)
  2118  039B  118A  26BE  118A   	fcall	_onewire_sendpacket
  2119                           	line	319
  2120                           	
  2121  039E                     l5689:	
  2122                           ;CLCP001.c: 319: _delay((unsigned long)((3000)*(8000000/4000.0)));
  2123                           	opt asmopt_off
  2124  039E  301F               movlw  31
  2125  039F  1283               	bcf	status, 5	;RP0=0, select bank0
  2126  03A0  1303               	bcf	status, 6	;RP1=0, select bank0
  2127  03A1  00B3               movwf	((??_main+0)+0+2),f
  2128  03A2  3071               movlw	113
  2129  03A3  00B2               movwf	((??_main+0)+0+1),f
  2130  03A4  303B               	movlw	59
  2131  03A5  00B1               movwf	((??_main+0)+0),f
  2132  03A6                     u3987:
  2133  03A6  0BB1               	decfsz	((??_main+0)+0),f
  2134  03A7  2BA6               	goto	u3987
  2135  03A8  0BB2               	decfsz	((??_main+0)+0+1),f
  2136  03A9  2BA6               	goto	u3987
  2137  03AA  0BB3               	decfsz	((??_main+0)+0+2),f
  2138  03AB  2BA6               	goto	u3987
  2139  03AC  0064               	clrwdt
  2140                           opt asmopt_on
  2141                           
  2142  03AD  2BAF               	goto	l5691
  2143                           	line	320
  2144                           	
  2145  03AE                     l755:	
  2146  03AE  2BAF               	goto	l5691
  2147                           	line	128
  2148                           	
  2149  03AF                     l758:	
  2150                           	
  2151  03AF                     l5691:	
  2152  03AF  3001               	movlw	low(01h)
  2153  03B0  1283               	bcf	status, 5	;RP0=0, select bank0
  2154  03B1  1303               	bcf	status, 6	;RP1=0, select bank0
  2155  03B2  07D1               	addwf	(main@i),f
  2156  03B3  1803               	skipnc
  2157  03B4  0AD2               	incf	(main@i+1),f
  2158  03B5  3000               	movlw	high(01h)
  2159  03B6  07D2               	addwf	(main@i+1),f
  2160                           	
  2161  03B7                     l5693:	
  2162  03B7  0852               	movf	(main@i+1),w
  2163  03B8  3A80               	xorlw	80h
  2164  03B9  00FF               	movwf	btemp+1
  2165  03BA  3080               	movlw	(high(04h))^80h
  2166  03BB  027F               	subwf	btemp+1,w
  2167  03BC  1D03               	skipz
  2168  03BD  2BC0               	goto	u3655
  2169  03BE  3004               	movlw	low(04h)
  2170  03BF  0251               	subwf	(main@i),w
  2171  03C0                     u3655:
  2172                           
  2173  03C0  1C03               	skipc
  2174  03C1  2BC3               	goto	u3651
  2175  03C2  2BC4               	goto	u3650
  2176  03C3                     u3651:
  2177  03C3  2853               	goto	l5545
  2178  03C4                     u3650:
  2179  03C4  2840               	goto	l5539
  2180                           	
  2181  03C5                     l754:	
  2182  03C5  2840               	goto	l5539
  2183                           	line	322
  2184                           	
  2185  03C6                     l775:	
  2186                           	line	126
  2187  03C6  2840               	goto	l5539
  2188                           	
  2189  03C7                     l776:	
  2190                           	line	324
  2191                           	
  2192  03C7                     l777:	
  2193                           	global	start
  2194  03C7  118A  2811         	ljmp	start
  2195                           	opt stack 0
  2196                           GLOBAL	__end_of_main
  2197  03C9                     	__end_of_main:
  2198 ;; =============== function _main ends ============
  2199                           
  2200                           	signat	_main,90
  2201                           	global	_InitialiseSensors
  2202                           psect	text410,local,class=CODE,delta=2
  2203                           global __ptext410
  2204  05FF                     __ptext410:
  2205                           
  2206 ;; *************** function _InitialiseSensors *****************
  2207 ;; Defined at:
  2208 ;;		line 56 in file "CLCP001.c"
  2209 ;; Parameters:    Size  Location     Type
  2210 ;;		None
  2211 ;; Auto vars:     Size  Location     Type
  2212 ;;  i               2   11[BANK0 ] int 
  2213 ;;  SensorAddres    1   10[BANK0 ] unsigned char 
  2214 ;; Return value:  Size  Location     Type
  2215 ;;		None               void
  2216 ;; Registers used:
  2217 ;;		wreg, fsr0l, fsr0h, status,2, status,0, btemp+1, pclath, cstack
  2218 ;; Tracked objects:
  2219 ;;		On entry : 0/0
  2220 ;;		On exit  : 0/0
  2221 ;;		Unchanged: 0/0
  2222 ;; Data sizes:     COMMON   BANK0   BANK1   BANK2
  2223 ;;      Params:         0       0       0       0
  2224 ;;      Locals:         0       3       0       0
  2225 ;;      Temps:          1       0       0       0
  2226 ;;      Totals:         1       3       0       0
  2227 ;;Total ram usage:        4 bytes
  2228 ;; Hardware stack levels used:    1
  2229 ;; Hardware stack levels required when called:    3
  2230 ;; This function calls:
  2231 ;;		_onewire_sendpacket
  2232 ;;		_onewire_listen
  2233 ;; This function is called by:
  2234 ;;		_main
  2235 ;; This function uses a non-reentrant model
  2236 ;;
  2237                           psect	text410
  2238                           	file	"CLCP001.c"
  2239                           	line	56
  2240                           	global	__size_of_InitialiseSensors
  2241  004D                     	__size_of_InitialiseSensors	equ	__end_of_InitialiseSensors-_InitialiseSensors
  2242                           	
  2243  05FF                     _InitialiseSensors:	
  2244                           	opt	stack 4
  2245                           ; Regs used in _InitialiseSensors: [wreg-fsr0h+status,2+status,0+btemp+1+pclath+cstack]
  2246                           	line	59
  2247                           	
  2248  05FF                     l5503:	
  2249                           ;CLCP001.c: 57: unsigned char SensorAddress;
  2250                           ;CLCP001.c: 59: for (int i = 0; i < 4; i++)
  2251  05FF  1283               	bcf	status, 5	;RP0=0, select bank0
  2252  0600  1303               	bcf	status, 6	;RP1=0, select bank0
  2253  0601  01AB               	clrf	(InitialiseSensors@i)
  2254  0602  01AC               	clrf	(InitialiseSensors@i+1)
  2255                           	
  2256  0603                     l5505:	
  2257  0603  082C               	movf	(InitialiseSensors@i+1),w
  2258  0604  3A80               	xorlw	80h
  2259  0605  00FF               	movwf	btemp+1
  2260  0606  3080               	movlw	(high(04h))^80h
  2261  0607  027F               	subwf	btemp+1,w
  2262  0608  1D03               	skipz
  2263  0609  2E0C               	goto	u3515
  2264  060A  3004               	movlw	low(04h)
  2265  060B  022B               	subwf	(InitialiseSensors@i),w
  2266  060C                     u3515:
  2267                           
  2268  060C  1C03               	skipc
  2269  060D  2E0F               	goto	u3511
  2270  060E  2E10               	goto	u3510
  2271  060F                     u3511:
  2272  060F  2E12               	goto	l5509
  2273  0610                     u3510:
  2274  0610  2E4B               	goto	l741
  2275                           	
  2276  0611                     l5507:	
  2277  0611  2E4B               	goto	l741
  2278                           	line	60
  2279                           	
  2280  0612                     l738:	
  2281                           	line	61
  2282                           	
  2283  0612                     l5509:	
  2284                           ;CLCP001.c: 60: {
  2285                           ;CLCP001.c: 61: SensorAddress = 0x10 + i;
  2286  0612  1283               	bcf	status, 5	;RP0=0, select bank0
  2287  0613  1303               	bcf	status, 6	;RP1=0, select bank0
  2288  0614  082B               	movf	(InitialiseSensors@i),w
  2289  0615  3E10               	addlw	010h
  2290  0616  00F8               	movwf	(??_InitialiseSensors+0)+0
  2291  0617  0878               	movf	(??_InitialiseSensors+0)+0,w
  2292  0618  00AA               	movwf	(InitialiseSensors@SensorAddress)
  2293                           	line	63
  2294                           	
  2295  0619                     l5511:	
  2296                           ;CLCP001.c: 63: if (SensorsArray[i] != 0xFF)
  2297  0619  082B               	movf	(InitialiseSensors@i),w
  2298  061A  3E54               	addlw	_SensorsArray&0ffh
  2299  061B  0084               	movwf	fsr0
  2300  061C  1383               	bcf	status, 7	;select IRP bank0
  2301  061D  0800               	movf	indf,w
  2302  061E  3AFF               	xorlw	0FFh
  2303  061F  1903               	skipnz
  2304  0620  2E22               	goto	u3521
  2305  0621  2E23               	goto	u3520
  2306  0622                     u3521:
  2307  0622  2E35               	goto	l5515
  2308  0623                     u3520:
  2309                           	line	66
  2310                           	
  2311  0623                     l5513:	
  2312                           ;CLCP001.c: 64: {
  2313                           ;CLCP001.c: 66: onewire_sendpacket(SensorAddress,0x00,0xFF);
  2314  0623  01A4               	clrf	(?_onewire_sendpacket)
  2315  0624  30FF               	movlw	(0FFh)
  2316  0625  00F8               	movwf	(??_InitialiseSensors+0)+0
  2317  0626  0878               	movf	(??_InitialiseSensors+0)+0,w
  2318  0627  00A5               	movwf	0+(?_onewire_sendpacket)+01h
  2319  0628  082A               	movf	(InitialiseSensors@SensorAddress),w
  2320  0629  118A  26BE  118A   	fcall	_onewire_sendpacket
  2321                           	line	67
  2322                           ;CLCP001.c: 67: onewire_listen(0x00);
  2323  062C  3000               	movlw	(0)
  2324  062D  118A  23C9  118A   	fcall	_onewire_listen
  2325                           	line	68
  2326                           ;CLCP001.c: 68: onewire_listen(0x00);
  2327  0630  3000               	movlw	(0)
  2328  0631  118A  23C9  118A   	fcall	_onewire_listen
  2329  0634  2E35               	goto	l5515
  2330                           	line	69
  2331                           	
  2332  0635                     l740:	
  2333                           	line	59
  2334                           	
  2335  0635                     l5515:	
  2336  0635  3001               	movlw	low(01h)
  2337  0636  1283               	bcf	status, 5	;RP0=0, select bank0
  2338  0637  1303               	bcf	status, 6	;RP1=0, select bank0
  2339  0638  07AB               	addwf	(InitialiseSensors@i),f
  2340  0639  1803               	skipnc
  2341  063A  0AAC               	incf	(InitialiseSensors@i+1),f
  2342  063B  3000               	movlw	high(01h)
  2343  063C  07AC               	addwf	(InitialiseSensors@i+1),f
  2344                           	
  2345  063D                     l5517:	
  2346  063D  082C               	movf	(InitialiseSensors@i+1),w
  2347  063E  3A80               	xorlw	80h
  2348  063F  00FF               	movwf	btemp+1
  2349  0640  3080               	movlw	(high(04h))^80h
  2350  0641  027F               	subwf	btemp+1,w
  2351  0642  1D03               	skipz
  2352  0643  2E46               	goto	u3535
  2353  0644  3004               	movlw	low(04h)
  2354  0645  022B               	subwf	(InitialiseSensors@i),w
  2355  0646                     u3535:
  2356                           
  2357  0646  1C03               	skipc
  2358  0647  2E49               	goto	u3531
  2359  0648  2E4A               	goto	u3530
  2360  0649                     u3531:
  2361  0649  2E12               	goto	l5509
  2362  064A                     u3530:
  2363  064A  2E4B               	goto	l741
  2364                           	
  2365  064B                     l739:	
  2366                           	line	71
  2367                           	
  2368  064B                     l741:	
  2369  064B  0008               	return
  2370                           	opt stack 0
  2371                           GLOBAL	__end_of_InitialiseSensors
  2372  064C                     	__end_of_InitialiseSensors:
  2373 ;; =============== function _InitialiseSensors ends ============
  2374                           
  2375                           	signat	_InitialiseSensors,88
  2376                           	global	_IdentifyConnectedControllers
  2377                           psect	text411,local,class=CODE,delta=2
  2378                           global __ptext411
  2379  064C                     __ptext411:
  2380                           
  2381 ;; *************** function _IdentifyConnectedControllers *****************
  2382 ;; Defined at:
  2383 ;;		line 41 in file "CLCP001.c"
  2384 ;; Parameters:    Size  Location     Type
  2385 ;;		None
  2386 ;; Auto vars:     Size  Location     Type
  2387 ;;  NextAddress     1   10[BANK0 ] unsigned char 
  2388 ;;  i               2   11[BANK0 ] int 
  2389 ;; Return value:  Size  Location     Type
  2390 ;;		None               void
  2391 ;; Registers used:
  2392 ;;		wreg, fsr0l, fsr0h, status,2, status,0, btemp+1, pclath, cstack
  2393 ;; Tracked objects:
  2394 ;;		On entry : 0/0
  2395 ;;		On exit  : 0/0
  2396 ;;		Unchanged: 0/0
  2397 ;; Data sizes:     COMMON   BANK0   BANK1   BANK2
  2398 ;;      Params:         0       0       0       0
  2399 ;;      Locals:         0       3       0       0
  2400 ;;      Temps:          1       0       0       0
  2401 ;;      Totals:         1       3       0       0
  2402 ;;Total ram usage:        4 bytes
  2403 ;; Hardware stack levels used:    1
  2404 ;; Hardware stack levels required when called:    3
  2405 ;; This function calls:
  2406 ;;		_onewire_sendpacket
  2407 ;;		_onewire_listen
  2408 ;; This function is called by:
  2409 ;;		_main
  2410 ;; This function uses a non-reentrant model
  2411 ;;
  2412                           psect	text411
  2413                           	file	"CLCP001.c"
  2414                           	line	41
  2415                           	global	__size_of_IdentifyConnectedControllers
  2416  004A                     	__size_of_IdentifyConnectedControllers	equ	__end_of_IdentifyConnectedControllers-_Ident
                                 ifyConnectedControllers
  2417                           	
  2418  064C                     _IdentifyConnectedControllers:	
  2419                           	opt	stack 4
  2420                           ; Regs used in _IdentifyConnectedControllers: [wreg-fsr0h+status,2+status,0+btemp+1+pcla
                                 th+cstack]
  2421                           	line	42
  2422                           	
  2423  064C                     l5481:	
  2424                           ;CLCP001.c: 42: for (int i = 0; i < 4; i++)
  2425  064C  1283               	bcf	status, 5	;RP0=0, select bank0
  2426  064D  1303               	bcf	status, 6	;RP1=0, select bank0
  2427  064E  01AB               	clrf	(IdentifyConnectedControllers@i)
  2428  064F  01AC               	clrf	(IdentifyConnectedControllers@i+1)
  2429                           	
  2430  0650                     l5483:	
  2431  0650  082C               	movf	(IdentifyConnectedControllers@i+1),w
  2432  0651  3A80               	xorlw	80h
  2433  0652  00FF               	movwf	btemp+1
  2434  0653  3080               	movlw	(high(04h))^80h
  2435  0654  027F               	subwf	btemp+1,w
  2436  0655  1D03               	skipz
  2437  0656  2E59               	goto	u3495
  2438  0657  3004               	movlw	low(04h)
  2439  0658  022B               	subwf	(IdentifyConnectedControllers@i),w
  2440  0659                     u3495:
  2441                           
  2442  0659  1C03               	skipc
  2443  065A  2E5C               	goto	u3491
  2444  065B  2E5D               	goto	u3490
  2445  065C                     u3491:
  2446  065C  2E5F               	goto	l5487
  2447  065D                     u3490:
  2448  065D  2E95               	goto	l735
  2449                           	
  2450  065E                     l5485:	
  2451  065E  2E95               	goto	l735
  2452                           	line	43
  2453                           	
  2454  065F                     l733:	
  2455                           	line	44
  2456                           	
  2457  065F                     l5487:	
  2458                           ;CLCP001.c: 43: {
  2459                           ;CLCP001.c: 44: unsigned char NextAddress = 0x10 + i;
  2460  065F  1283               	bcf	status, 5	;RP0=0, select bank0
  2461  0660  1303               	bcf	status, 6	;RP1=0, select bank0
  2462  0661  082B               	movf	(IdentifyConnectedControllers@i),w
  2463  0662  3E10               	addlw	010h
  2464  0663  00F8               	movwf	(??_IdentifyConnectedControllers+0)+0
  2465  0664  0878               	movf	(??_IdentifyConnectedControllers+0)+0,w
  2466  0665  00AA               	movwf	(IdentifyConnectedControllers@NextAddress)
  2467                           	line	46
  2468                           	
  2469  0666                     l5489:	
  2470                           ;CLCP001.c: 46: onewire_sendpacket(NextAddress,0x00,0x00);
  2471  0666  01A4               	clrf	(?_onewire_sendpacket)
  2472  0667  01A5               	clrf	0+(?_onewire_sendpacket)+01h
  2473  0668  082A               	movf	(IdentifyConnectedControllers@NextAddress),w
  2474  0669  118A  26BE  118A   	fcall	_onewire_sendpacket
  2475                           	line	48
  2476                           	
  2477  066C                     l5491:	
  2478                           ;CLCP001.c: 48: BreakOnTimeout = 1;
  2479  066C  1479               	bsf	(_BreakOnTimeout/8),(_BreakOnTimeout)&7
  2480                           	line	49
  2481                           	
  2482  066D                     l5493:	
  2483                           ;CLCP001.c: 49: TimeoutMultiplier = 1;
  2484  066D  3001               	movlw	low(01h)
  2485  066E  1283               	bcf	status, 5	;RP0=0, select bank0
  2486  066F  1303               	bcf	status, 6	;RP1=0, select bank0
  2487  0670  00DA               	movwf	(_TimeoutMultiplier)
  2488  0671  3000               	movlw	high(01h)
  2489  0672  00DB               	movwf	((_TimeoutMultiplier))+1
  2490                           	line	50
  2491                           	
  2492  0673                     l5495:	
  2493                           ;CLCP001.c: 50: SensorsArray[i] = onewire_listen(0x00);
  2494  0673  3000               	movlw	(0)
  2495  0674  118A  23C9  118A   	fcall	_onewire_listen
  2496  0677  00F8               	movwf	(??_IdentifyConnectedControllers+0)+0
  2497  0678  1283               	bcf	status, 5	;RP0=0, select bank0
  2498  0679  1303               	bcf	status, 6	;RP1=0, select bank0
  2499  067A  082B               	movf	(IdentifyConnectedControllers@i),w
  2500  067B  3E54               	addlw	_SensorsArray&0ffh
  2501  067C  0084               	movwf	fsr0
  2502  067D  0878               	movf	(??_IdentifyConnectedControllers+0)+0,w
  2503  067E  1383               	bcf	status, 7	;select IRP bank0
  2504  067F  0080               	movwf	indf
  2505                           	line	51
  2506                           	
  2507  0680                     l5497:	
  2508                           ;CLCP001.c: 51: BreakOnTimeout = 0;
  2509  0680  1079               	bcf	(_BreakOnTimeout/8),(_BreakOnTimeout)&7
  2510                           	line	42
  2511                           	
  2512  0681                     l5499:	
  2513  0681  3001               	movlw	low(01h)
  2514  0682  07AB               	addwf	(IdentifyConnectedControllers@i),f
  2515  0683  1803               	skipnc
  2516  0684  0AAC               	incf	(IdentifyConnectedControllers@i+1),f
  2517  0685  3000               	movlw	high(01h)
  2518  0686  07AC               	addwf	(IdentifyConnectedControllers@i+1),f
  2519                           	
  2520  0687                     l5501:	
  2521  0687  082C               	movf	(IdentifyConnectedControllers@i+1),w
  2522  0688  3A80               	xorlw	80h
  2523  0689  00FF               	movwf	btemp+1
  2524  068A  3080               	movlw	(high(04h))^80h
  2525  068B  027F               	subwf	btemp+1,w
  2526  068C  1D03               	skipz
  2527  068D  2E90               	goto	u3505
  2528  068E  3004               	movlw	low(04h)
  2529  068F  022B               	subwf	(IdentifyConnectedControllers@i),w
  2530  0690                     u3505:
  2531                           
  2532  0690  1C03               	skipc
  2533  0691  2E93               	goto	u3501
  2534  0692  2E94               	goto	u3500
  2535  0693                     u3501:
  2536  0693  2E5F               	goto	l5487
  2537  0694                     u3500:
  2538  0694  2E95               	goto	l735
  2539                           	
  2540  0695                     l734:	
  2541                           	line	53
  2542                           	
  2543  0695                     l735:	
  2544  0695  0008               	return
  2545                           	opt stack 0
  2546                           GLOBAL	__end_of_IdentifyConnectedControllers
  2547  0696                     	__end_of_IdentifyConnectedControllers:
  2548 ;; =============== function _IdentifyConnectedControllers ends ============
  2549                           
  2550                           	signat	_IdentifyConnectedControllers,88
  2551                           	global	_onewire_listen
  2552                           psect	text412,local,class=CODE,delta=2
  2553                           global __ptext412
  2554  03C9                     __ptext412:
  2555                           
  2556 ;; *************** function _onewire_listen *****************
  2557 ;; Defined at:
  2558 ;;		line 94 in file "CLDTP1.c"
  2559 ;; Parameters:    Size  Location     Type
  2560 ;;  address         1    wreg     unsigned char 
  2561 ;; Auto vars:     Size  Location     Type
  2562 ;;  address         1    5[BANK0 ] unsigned char 
  2563 ;;  message_reci    2    8[BANK0 ] int 
  2564 ;;  Payload         1    7[BANK0 ] unsigned char 
  2565 ;;  RxAddress       1    6[BANK0 ] unsigned char 
  2566 ;;  TxAddress       1    4[BANK0 ] unsigned char 
  2567 ;; Return value:  Size  Location     Type
  2568 ;;                  1    wreg      unsigned char 
  2569 ;; Registers used:
  2570 ;;		wreg, status,2, status,0, btemp+1, pclath, cstack
  2571 ;; Tracked objects:
  2572 ;;		On entry : 0/0
  2573 ;;		On exit  : 0/0
  2574 ;;		Unchanged: 0/0
  2575 ;; Data sizes:     COMMON   BANK0   BANK1   BANK2
  2576 ;;      Params:         0       0       0       0
  2577 ;;      Locals:         0       6       0       0
  2578 ;;      Temps:          1       0       0       0
  2579 ;;      Totals:         1       6       0       0
  2580 ;;Total ram usage:        7 bytes
  2581 ;; Hardware stack levels used:    1
  2582 ;; Hardware stack levels required when called:    2
  2583 ;; This function calls:
  2584 ;;		_onewire_read
  2585 ;; This function is called by:
  2586 ;;		_IdentifyConnectedControllers
  2587 ;;		_InitialiseSensors
  2588 ;;		_main
  2589 ;; This function uses a non-reentrant model
  2590 ;;
  2591                           psect	text412
  2592                           	file	"CLDTP1.c"
  2593                           	line	94
  2594                           	global	__size_of_onewire_listen
  2595  008C                     	__size_of_onewire_listen	equ	__end_of_onewire_listen-_onewire_listen
  2596                           	
  2597  03C9                     _onewire_listen:	
  2598                           	opt	stack 5
  2599                           ; Regs used in _onewire_listen: [wreg+status,2+status,0+btemp+1+pclath+cstack]
  2600                           ;onewire_listen@address stored from wreg
  2601                           	line	96
  2602  03C9  1283               	bcf	status, 5	;RP0=0, select bank0
  2603  03CA  1303               	bcf	status, 6	;RP1=0, select bank0
  2604  03CB  00A5               	movwf	(onewire_listen@address)
  2605                           	
  2606  03CC                     l5423:	
  2607                           ;CLDTP1.c: 96: IDTimeout = 0;
  2608  03CC  10F9               	bcf	(_IDTimeout/8),(_IDTimeout)&7
  2609                           	line	97
  2610                           	
  2611  03CD                     l5425:	
  2612                           ;CLDTP1.c: 97: TimeoutOverflowCounter = 0;
  2613  03CD  01D8               	clrf	(_TimeoutOverflowCounter)
  2614  03CE  01D9               	clrf	(_TimeoutOverflowCounter+1)
  2615                           	line	98
  2616                           	
  2617  03CF                     l5427:	
  2618                           ;CLDTP1.c: 98: TMR1ON = 0;
  2619  03CF  1010               	bcf	(128/8),(128)&7
  2620                           	line	100
  2621                           	
  2622  03D0                     l5429:	
  2623                           ;CLDTP1.c: 100: if (BreakOnTimeout)
  2624  03D0  1C79               	btfss	(_BreakOnTimeout/8),(_BreakOnTimeout)&7
  2625  03D1  2BD3               	goto	u3371
  2626  03D2  2BD4               	goto	u3370
  2627  03D3                     u3371:
  2628  03D3  2BE2               	goto	l5441
  2629  03D4                     u3370:
  2630                           	line	103
  2631                           	
  2632  03D4                     l5431:	
  2633                           ;CLDTP1.c: 101: {
  2634                           ;CLDTP1.c: 103: TMR1H = 0x0;
  2635  03D4  018F               	clrf	(15)	;volatile
  2636                           	line	104
  2637                           ;CLDTP1.c: 104: TMR1L = 0x0;
  2638  03D5  018E               	clrf	(14)	;volatile
  2639                           	line	105
  2640                           	
  2641  03D6                     l5433:	
  2642                           ;CLDTP1.c: 105: T1CON = 0b00110000;
  2643  03D6  3030               	movlw	(030h)
  2644  03D7  0090               	movwf	(16)	;volatile
  2645                           	line	106
  2646                           	
  2647  03D8                     l5435:	
  2648                           ;CLDTP1.c: 106: PIE1 = 0b00000001;
  2649  03D8  3001               	movlw	(01h)
  2650  03D9  1683               	bsf	status, 5	;RP0=1, select bank1
  2651  03DA  1303               	bcf	status, 6	;RP1=0, select bank1
  2652  03DB  008C               	movwf	(140)^080h	;volatile
  2653                           	line	107
  2654                           	
  2655  03DC                     l5437:	
  2656                           ;CLDTP1.c: 107: INTCON = 0b11000000;
  2657  03DC  30C0               	movlw	(0C0h)
  2658  03DD  008B               	movwf	(11)	;volatile
  2659                           	line	108
  2660                           	
  2661  03DE                     l5439:	
  2662                           ;CLDTP1.c: 108: TMR1ON = 1;
  2663  03DE  1283               	bcf	status, 5	;RP0=0, select bank0
  2664  03DF  1303               	bcf	status, 6	;RP1=0, select bank0
  2665  03E0  1410               	bsf	(128/8),(128)&7
  2666  03E1  2BE2               	goto	l5441
  2667                           	line	109
  2668                           	
  2669  03E2                     l2417:	
  2670                           	line	115
  2671                           	
  2672  03E2                     l5441:	
  2673                           ;CLDTP1.c: 109: }
  2674                           ;CLDTP1.c: 112: unsigned char RxAddress;
  2675                           ;CLDTP1.c: 113: unsigned char TxAddress;
  2676                           ;CLDTP1.c: 114: unsigned char Payload;
  2677                           ;CLDTP1.c: 115: int message_recieved = 0;
  2678  03E2  01A8               	clrf	(onewire_listen@message_recieved)
  2679  03E3  01A9               	clrf	(onewire_listen@message_recieved+1)
  2680                           	line	117
  2681                           ;CLDTP1.c: 117: while(message_recieved == 0)
  2682  03E4  2C4D               	goto	l5479
  2683                           	
  2684  03E5                     l2419:	
  2685                           	line	119
  2686                           ;CLDTP1.c: 118: {
  2687                           ;CLDTP1.c: 119: while(((0b10000000&PORTB)>0)&&(IDTimeout==0))
  2688  03E5  2BE6               	goto	l2420
  2689                           	
  2690  03E6                     l2421:	
  2691                           	line	120
  2692                           ;CLDTP1.c: 120: {}
  2693                           	
  2694  03E6                     l2420:	
  2695                           	line	119
  2696  03E6  1F86               	btfss	(6),(7)&7
  2697  03E7  2BE9               	goto	u3381
  2698  03E8  2BEA               	goto	u3380
  2699  03E9                     u3381:
  2700  03E9  2BEF               	goto	l2424
  2701  03EA                     u3380:
  2702                           	
  2703  03EA                     l5443:	
  2704  03EA  1CF9               	btfss	(_IDTimeout/8),(_IDTimeout)&7
  2705  03EB  2BED               	goto	u3391
  2706  03EC  2BEE               	goto	u3390
  2707  03ED                     u3391:
  2708  03ED  2BE6               	goto	l2420
  2709  03EE                     u3390:
  2710  03EE  2BEF               	goto	l2424
  2711                           	
  2712  03EF                     l2423:	
  2713                           	
  2714  03EF                     l2424:	
  2715                           	line	122
  2716                           ;CLDTP1.c: 122: if (IDTimeout == 1)
  2717  03EF  1CF9               	btfss	(_IDTimeout/8),(_IDTimeout)&7
  2718  03F0  2BF2               	goto	u3401
  2719  03F1  2BF3               	goto	u3400
  2720  03F2                     u3401:
  2721  03F2  2BF6               	goto	l5449
  2722  03F3                     u3400:
  2723                           	line	124
  2724                           	
  2725  03F3                     l5445:	
  2726                           ;CLDTP1.c: 123: {
  2727                           ;CLDTP1.c: 124: return 0xFF;
  2728  03F3  30FF               	movlw	(0FFh)
  2729  03F4  2C54               	goto	l2426
  2730                           	
  2731  03F5                     l5447:	
  2732  03F5  2C54               	goto	l2426
  2733                           	line	125
  2734                           	
  2735  03F6                     l2425:	
  2736                           	line	128
  2737                           	
  2738  03F6                     l5449:	
  2739                           ;CLDTP1.c: 125: }
  2740                           ;CLDTP1.c: 128: RxAddress = onewire_read();
  2741  03F6  118A  24D6  118A   	fcall	_onewire_read
  2742  03F9  00F6               	movwf	(??_onewire_listen+0)+0
  2743  03FA  0876               	movf	(??_onewire_listen+0)+0,w
  2744  03FB  1283               	bcf	status, 5	;RP0=0, select bank0
  2745  03FC  1303               	bcf	status, 6	;RP1=0, select bank0
  2746  03FD  00A6               	movwf	(onewire_listen@RxAddress)
  2747                           	line	130
  2748                           	
  2749  03FE                     l5451:	
  2750                           ;CLDTP1.c: 130: _delay((unsigned long)((10)*(8000000/4000000.0)));
  2751                           	opt asmopt_off
  2752  03FE  3006               movlw	6
  2753  03FF  00F6               movwf	(??_onewire_listen+0)+0,f
  2754  0400                     u3997:
  2755  0400  0BF6               decfsz	(??_onewire_listen+0)+0,f
  2756  0401  2C00               	goto	u3997
  2757  0402  0064               	clrwdt
  2758                           opt asmopt_on
  2759                           
  2760                           	line	131
  2761                           ;CLDTP1.c: 131: while(((0b10000000&PORTB)>0)&&(IDTimeout==0))
  2762  0403  2C04               	goto	l2427
  2763                           	
  2764  0404                     l2428:	
  2765                           	line	132
  2766                           ;CLDTP1.c: 132: {}
  2767                           	
  2768  0404                     l2427:	
  2769                           	line	131
  2770  0404  1283               	bcf	status, 5	;RP0=0, select bank0
  2771  0405  1303               	bcf	status, 6	;RP1=0, select bank0
  2772  0406  1F86               	btfss	(6),(7)&7
  2773  0407  2C09               	goto	u3411
  2774  0408  2C0A               	goto	u3410
  2775  0409                     u3411:
  2776  0409  2C0F               	goto	l2431
  2777  040A                     u3410:
  2778                           	
  2779  040A                     l5453:	
  2780  040A  1CF9               	btfss	(_IDTimeout/8),(_IDTimeout)&7
  2781  040B  2C0D               	goto	u3421
  2782  040C  2C0E               	goto	u3420
  2783  040D                     u3421:
  2784  040D  2C04               	goto	l2427
  2785  040E                     u3420:
  2786  040E  2C0F               	goto	l2431
  2787                           	
  2788  040F                     l2430:	
  2789                           	
  2790  040F                     l2431:	
  2791                           	line	134
  2792                           ;CLDTP1.c: 134: if (IDTimeout == 1)
  2793  040F  1CF9               	btfss	(_IDTimeout/8),(_IDTimeout)&7
  2794  0410  2C12               	goto	u3431
  2795  0411  2C13               	goto	u3430
  2796  0412                     u3431:
  2797  0412  2C16               	goto	l5459
  2798  0413                     u3430:
  2799                           	line	136
  2800                           	
  2801  0413                     l5455:	
  2802                           ;CLDTP1.c: 135: {
  2803                           ;CLDTP1.c: 136: return 0xFF;
  2804  0413  30FF               	movlw	(0FFh)
  2805  0414  2C54               	goto	l2426
  2806                           	
  2807  0415                     l5457:	
  2808  0415  2C54               	goto	l2426
  2809                           	line	137
  2810                           	
  2811  0416                     l2432:	
  2812                           	line	140
  2813                           	
  2814  0416                     l5459:	
  2815                           ;CLDTP1.c: 137: }
  2816                           ;CLDTP1.c: 140: TxAddress = onewire_read();
  2817  0416  118A  24D6  118A   	fcall	_onewire_read
  2818  0419  00F6               	movwf	(??_onewire_listen+0)+0
  2819  041A  0876               	movf	(??_onewire_listen+0)+0,w
  2820  041B  1283               	bcf	status, 5	;RP0=0, select bank0
  2821  041C  1303               	bcf	status, 6	;RP1=0, select bank0
  2822  041D  00A4               	movwf	(onewire_listen@TxAddress)
  2823                           	line	143
  2824                           	
  2825  041E                     l5461:	
  2826                           ;CLDTP1.c: 143: _delay((unsigned long)((10)*(8000000/4000000.0)));
  2827                           	opt asmopt_off
  2828  041E  3006               movlw	6
  2829  041F  00F6               movwf	(??_onewire_listen+0)+0,f
  2830  0420                     u4007:
  2831  0420  0BF6               decfsz	(??_onewire_listen+0)+0,f
  2832  0421  2C20               	goto	u4007
  2833  0422  0064               	clrwdt
  2834                           opt asmopt_on
  2835                           
  2836                           	line	144
  2837                           ;CLDTP1.c: 144: while(((0b10000000&PORTB)>0)&&(IDTimeout==0))
  2838  0423  2C24               	goto	l2433
  2839                           	
  2840  0424                     l2434:	
  2841                           	line	145
  2842                           ;CLDTP1.c: 145: {}
  2843                           	
  2844  0424                     l2433:	
  2845                           	line	144
  2846  0424  1283               	bcf	status, 5	;RP0=0, select bank0
  2847  0425  1303               	bcf	status, 6	;RP1=0, select bank0
  2848  0426  1F86               	btfss	(6),(7)&7
  2849  0427  2C29               	goto	u3441
  2850  0428  2C2A               	goto	u3440
  2851  0429                     u3441:
  2852  0429  2C2F               	goto	l2437
  2853  042A                     u3440:
  2854                           	
  2855  042A                     l5463:	
  2856  042A  1CF9               	btfss	(_IDTimeout/8),(_IDTimeout)&7
  2857  042B  2C2D               	goto	u3451
  2858  042C  2C2E               	goto	u3450
  2859  042D                     u3451:
  2860  042D  2C24               	goto	l2433
  2861  042E                     u3450:
  2862  042E  2C2F               	goto	l2437
  2863                           	
  2864  042F                     l2436:	
  2865                           	
  2866  042F                     l2437:	
  2867                           	line	147
  2868                           ;CLDTP1.c: 147: if (IDTimeout == 1)
  2869  042F  1CF9               	btfss	(_IDTimeout/8),(_IDTimeout)&7
  2870  0430  2C32               	goto	u3461
  2871  0431  2C33               	goto	u3460
  2872  0432                     u3461:
  2873  0432  2C36               	goto	l5469
  2874  0433                     u3460:
  2875                           	line	149
  2876                           	
  2877  0433                     l5465:	
  2878                           ;CLDTP1.c: 148: {
  2879                           ;CLDTP1.c: 149: return 0xFF;
  2880  0433  30FF               	movlw	(0FFh)
  2881  0434  2C54               	goto	l2426
  2882                           	
  2883  0435                     l5467:	
  2884  0435  2C54               	goto	l2426
  2885                           	line	150
  2886                           	
  2887  0436                     l2438:	
  2888                           	line	152
  2889                           	
  2890  0436                     l5469:	
  2891                           ;CLDTP1.c: 150: }
  2892                           ;CLDTP1.c: 152: Payload = onewire_read();
  2893  0436  118A  24D6  118A   	fcall	_onewire_read
  2894  0439  00F6               	movwf	(??_onewire_listen+0)+0
  2895  043A  0876               	movf	(??_onewire_listen+0)+0,w
  2896  043B  1283               	bcf	status, 5	;RP0=0, select bank0
  2897  043C  1303               	bcf	status, 6	;RP1=0, select bank0
  2898  043D  00A7               	movwf	(onewire_listen@Payload)
  2899                           	line	154
  2900                           	
  2901  043E                     l5471:	
  2902                           ;CLDTP1.c: 154: if(RxAddress == address)
  2903  043E  0826               	movf	(onewire_listen@RxAddress),w
  2904  043F  0625               	xorwf	(onewire_listen@address),w
  2905  0440  1D03               	skipz
  2906  0441  2C43               	goto	u3471
  2907  0442  2C44               	goto	u3470
  2908  0443                     u3471:
  2909  0443  2C4D               	goto	l5479
  2910  0444                     u3470:
  2911                           	line	156
  2912                           	
  2913  0444                     l5473:	
  2914                           ;CLDTP1.c: 155: {
  2915                           ;CLDTP1.c: 156: message_recieved = 1;
  2916  0444  3001               	movlw	low(01h)
  2917  0445  00A8               	movwf	(onewire_listen@message_recieved)
  2918  0446  3000               	movlw	high(01h)
  2919  0447  00A9               	movwf	((onewire_listen@message_recieved))+1
  2920                           	line	157
  2921                           	
  2922  0448                     l5475:	
  2923                           ;CLDTP1.c: 157: TMR1ON = 0;
  2924  0448  1010               	bcf	(128/8),(128)&7
  2925                           	line	158
  2926                           ;CLDTP1.c: 158: return Payload;
  2927  0449  0827               	movf	(onewire_listen@Payload),w
  2928  044A  2C54               	goto	l2426
  2929                           	
  2930  044B                     l5477:	
  2931  044B  2C54               	goto	l2426
  2932                           	line	159
  2933                           	
  2934  044C                     l2439:	
  2935  044C  2C4D               	goto	l5479
  2936                           	line	160
  2937                           	
  2938  044D                     l2418:	
  2939                           	line	117
  2940                           	
  2941  044D                     l5479:	
  2942  044D  0829               	movf	(onewire_listen@message_recieved+1),w
  2943  044E  0428               	iorwf	(onewire_listen@message_recieved),w
  2944  044F  1903               	skipnz
  2945  0450  2C52               	goto	u3481
  2946  0451  2C53               	goto	u3480
  2947  0452                     u3481:
  2948  0452  2BE6               	goto	l2420
  2949  0453                     u3480:
  2950  0453  2C54               	goto	l2426
  2951                           	
  2952  0454                     l2440:	
  2953                           	line	161
  2954                           	
  2955  0454                     l2426:	
  2956  0454  0008               	return
  2957                           	opt stack 0
  2958                           GLOBAL	__end_of_onewire_listen
  2959  0455                     	__end_of_onewire_listen:
  2960 ;; =============== function _onewire_listen ends ============
  2961                           
  2962                           	signat	_onewire_listen,4217
  2963                           	global	_onewire_sendpacket
  2964                           psect	text413,local,class=CODE,delta=2
  2965                           global __ptext413
  2966  06BE                     __ptext413:
  2967                           
  2968 ;; *************** function _onewire_sendpacket *****************
  2969 ;; Defined at:
  2970 ;;		line 164 in file "CLDTP1.c"
  2971 ;; Parameters:    Size  Location     Type
  2972 ;;  RxAddress       1    wreg     unsigned char 
  2973 ;;  TxAddress       1    4[BANK0 ] unsigned char 
  2974 ;;  payload         1    5[BANK0 ] unsigned char 
  2975 ;; Auto vars:     Size  Location     Type
  2976 ;;  RxAddress       1    7[COMMON] unsigned char 
  2977 ;; Return value:  Size  Location     Type
  2978 ;;		None               void
  2979 ;; Registers used:
  2980 ;;		wreg, status,2, status,0, btemp+1, pclath, cstack
  2981 ;; Tracked objects:
  2982 ;;		On entry : 0/0
  2983 ;;		On exit  : 0/0
  2984 ;;		Unchanged: 0/0
  2985 ;; Data sizes:     COMMON   BANK0   BANK1   BANK2
  2986 ;;      Params:         0       2       0       0
  2987 ;;      Locals:         1       0       0       0
  2988 ;;      Temps:          1       0       0       0
  2989 ;;      Totals:         2       2       0       0
  2990 ;;Total ram usage:        4 bytes
  2991 ;; Hardware stack levels used:    1
  2992 ;; Hardware stack levels required when called:    2
  2993 ;; This function calls:
  2994 ;;		_onewire_write
  2995 ;; This function is called by:
  2996 ;;		_IdentifyConnectedControllers
  2997 ;;		_InitialiseSensors
  2998 ;;		_main
  2999 ;; This function uses a non-reentrant model
  3000 ;;
  3001                           psect	text413
  3002                           	file	"CLDTP1.c"
  3003                           	line	164
  3004                           	global	__size_of_onewire_sendpacket
  3005  001C                     	__size_of_onewire_sendpacket	equ	__end_of_onewire_sendpacket-_onewire_sendpacket
  3006                           	
  3007  06BE                     _onewire_sendpacket:	
  3008                           	opt	stack 5
  3009                           ; Regs used in _onewire_sendpacket: [wreg+status,2+status,0+btemp+1+pclath+cstack]
  3010                           ;onewire_sendpacket@RxAddress stored from wreg
  3011  06BE  00F7               	movwf	(onewire_sendpacket@RxAddress)
  3012                           	line	165
  3013                           	
  3014  06BF                     l5415:	
  3015                           ;CLDTP1.c: 165: onewire_write(RxAddress);
  3016  06BF  0877               	movf	(onewire_sendpacket@RxAddress),w
  3017  06C0  118A  2547  118A   	fcall	_onewire_write
  3018                           	line	166
  3019                           	
  3020  06C3                     l5417:	
  3021                           ;CLDTP1.c: 166: _delay((unsigned long)((10)*(8000000/4000000.0)));
  3022                           	opt asmopt_off
  3023  06C3  3006               movlw	6
  3024  06C4  00F6               movwf	(??_onewire_sendpacket+0)+0,f
  3025  06C5                     u4017:
  3026  06C5  0BF6               decfsz	(??_onewire_sendpacket+0)+0,f
  3027  06C6  2EC5               	goto	u4017
  3028  06C7  0064               	clrwdt
  3029                           opt asmopt_on
  3030                           
  3031                           	line	167
  3032                           	
  3033  06C8                     l5419:	
  3034                           ;CLDTP1.c: 167: onewire_write(TxAddress);
  3035  06C8  1283               	bcf	status, 5	;RP0=0, select bank0
  3036  06C9  1303               	bcf	status, 6	;RP1=0, select bank0
  3037  06CA  0824               	movf	(onewire_sendpacket@TxAddress),w
  3038  06CB  118A  2547  118A   	fcall	_onewire_write
  3039                           	line	168
  3040                           ;CLDTP1.c: 168: _delay((unsigned long)((10)*(8000000/4000000.0)));
  3041                           	opt asmopt_off
  3042  06CE  3006               movlw	6
  3043  06CF  00F6               movwf	(??_onewire_sendpacket+0)+0,f
  3044  06D0                     u4027:
  3045  06D0  0BF6               decfsz	(??_onewire_sendpacket+0)+0,f
  3046  06D1  2ED0               	goto	u4027
  3047  06D2  0064               	clrwdt
  3048                           opt asmopt_on
  3049                           
  3050                           	line	169
  3051                           	
  3052  06D3                     l5421:	
  3053                           ;CLDTP1.c: 169: onewire_write(payload);
  3054  06D3  1283               	bcf	status, 5	;RP0=0, select bank0
  3055  06D4  1303               	bcf	status, 6	;RP1=0, select bank0
  3056  06D5  0825               	movf	(onewire_sendpacket@payload),w
  3057  06D6  118A  2547  118A   	fcall	_onewire_write
  3058                           	line	170
  3059                           	
  3060  06D9                     l2443:	
  3061  06D9  0008               	return
  3062                           	opt stack 0
  3063                           GLOBAL	__end_of_onewire_sendpacket
  3064  06DA                     	__end_of_onewire_sendpacket:
  3065 ;; =============== function _onewire_sendpacket ends ============
  3066                           
  3067                           	signat	_onewire_sendpacket,12408
  3068                           	global	_onewire_read
  3069                           psect	text414,local,class=CODE,delta=2
  3070                           global __ptext414
  3071  04D6                     __ptext414:
  3072                           
  3073 ;; *************** function _onewire_read *****************
  3074 ;; Defined at:
  3075 ;;		line 53 in file "CLDTP1.c"
  3076 ;; Parameters:    Size  Location     Type
  3077 ;;		None
  3078 ;; Auto vars:     Size  Location     Type
  3079 ;;  count           2    1[BANK0 ] int 
  3080 ;;  data            1    3[BANK0 ] unsigned char 
  3081 ;;  databit         1    0[BANK0 ] unsigned char 
  3082 ;; Return value:  Size  Location     Type
  3083 ;;                  1    wreg      unsigned char 
  3084 ;; Registers used:
  3085 ;;		wreg, status,2, status,0, btemp+1
  3086 ;; Tracked objects:
  3087 ;;		On entry : 0/0
  3088 ;;		On exit  : 0/0
  3089 ;;		Unchanged: 0/0
  3090 ;; Data sizes:     COMMON   BANK0   BANK1   BANK2
  3091 ;;      Params:         0       0       0       0
  3092 ;;      Locals:         0       4       0       0
  3093 ;;      Temps:          2       0       0       0
  3094 ;;      Totals:         2       4       0       0
  3095 ;;Total ram usage:        6 bytes
  3096 ;; Hardware stack levels used:    1
  3097 ;; Hardware stack levels required when called:    1
  3098 ;; This function calls:
  3099 ;;		Nothing
  3100 ;; This function is called by:
  3101 ;;		_onewire_listen
  3102 ;; This function uses a non-reentrant model
  3103 ;;
  3104                           psect	text414
  3105                           	file	"CLDTP1.c"
  3106                           	line	53
  3107                           	global	__size_of_onewire_read
  3108  0071                     	__size_of_onewire_read	equ	__end_of_onewire_read-_onewire_read
  3109                           	
  3110  04D6                     _onewire_read:	
  3111                           	opt	stack 5
  3112                           ; Regs used in _onewire_read: [wreg+status,2+status,0+btemp+1]
  3113                           	line	54
  3114                           	
  3115  04D6                     l5383:	
  3116                           ;CLDTP1.c: 54: char data = 0x0;
  3117  04D6  1283               	bcf	status, 5	;RP0=0, select bank0
  3118  04D7  1303               	bcf	status, 6	;RP1=0, select bank0
  3119  04D8  01A3               	clrf	(onewire_read@data)
  3120                           	line	55
  3121                           ;CLDTP1.c: 55: char databit = 0;
  3122  04D9  01A0               	clrf	(onewire_read@databit)
  3123                           	line	56
  3124                           	
  3125  04DA                     l5385:	
  3126                           ;CLDTP1.c: 56: for (int count = 8;count > 0;count--)
  3127  04DA  3008               	movlw	low(08h)
  3128  04DB  00A1               	movwf	(onewire_read@count)
  3129  04DC  3000               	movlw	high(08h)
  3130  04DD  00A2               	movwf	((onewire_read@count))+1
  3131                           	
  3132  04DE                     l5387:	
  3133  04DE  0822               	movf	(onewire_read@count+1),w
  3134  04DF  3A80               	xorlw	80h
  3135  04E0  00FF               	movwf	btemp+1
  3136  04E1  3080               	movlw	(high(01h))^80h
  3137  04E2  027F               	subwf	btemp+1,w
  3138  04E3  1D03               	skipz
  3139  04E4  2CE7               	goto	u3305
  3140  04E5  3001               	movlw	low(01h)
  3141  04E6  0221               	subwf	(onewire_read@count),w
  3142  04E7                     u3305:
  3143                           
  3144  04E7  1803               	skipnc
  3145  04E8  2CEA               	goto	u3301
  3146  04E9  2CEB               	goto	u3300
  3147  04EA                     u3301:
  3148  04EA  2CED               	goto	l5391
  3149  04EB                     u3300:
  3150  04EB  2D42               	goto	l5411
  3151                           	
  3152  04EC                     l5389:	
  3153  04EC  2D42               	goto	l5411
  3154                           	line	57
  3155                           	
  3156  04ED                     l2402:	
  3157                           	line	58
  3158                           	
  3159  04ED                     l5391:	
  3160                           ;CLDTP1.c: 57: {
  3161                           ;CLDTP1.c: 58: _delay((unsigned long)((30)*(8000000/4000000.0)));
  3162                           	opt asmopt_off
  3163  04ED  3013               movlw	19
  3164  04EE  00F4               movwf	(??_onewire_read+0)+0,f
  3165  04EF                     u4037:
  3166  04EF  0BF4               decfsz	(??_onewire_read+0)+0,f
  3167  04F0  2CEF               	goto	u4037
  3168  04F1  2CF2               	nop2	;nop
  3169                           opt asmopt_on
  3170                           
  3171                           	line	61
  3172                           	
  3173  04F2                     l5393:	
  3174                           ;CLDTP1.c: 61: if ((PORTB & 0b10000000) > 0)
  3175  04F2  1283               	bcf	status, 5	;RP0=0, select bank0
  3176  04F3  1303               	bcf	status, 6	;RP1=0, select bank0
  3177  04F4  1F86               	btfss	(6),(7)&7
  3178  04F5  2CF7               	goto	u3311
  3179  04F6  2CF8               	goto	u3310
  3180  04F7                     u3311:
  3181  04F7  2CFC               	goto	l2404
  3182  04F8                     u3310:
  3183                           	line	63
  3184                           	
  3185  04F8                     l5395:	
  3186                           ;CLDTP1.c: 62: {
  3187                           ;CLDTP1.c: 63: databit = 1;
  3188  04F8  01A0               	clrf	(onewire_read@databit)
  3189  04F9  1403               	bsf	status,0
  3190  04FA  0DA0               	rlf	(onewire_read@databit),f
  3191                           	line	64
  3192                           ;CLDTP1.c: 64: }
  3193  04FB  2CFE               	goto	l5397
  3194                           	line	65
  3195                           	
  3196  04FC                     l2404:	
  3197                           	line	67
  3198                           ;CLDTP1.c: 65: else
  3199                           ;CLDTP1.c: 66: {
  3200                           ;CLDTP1.c: 67: databit = 0;
  3201  04FC  01A0               	clrf	(onewire_read@databit)
  3202  04FD  2CFE               	goto	l5397
  3203                           	line	68
  3204                           	
  3205  04FE                     l2405:	
  3206                           	line	72
  3207                           	
  3208  04FE                     l5397:	
  3209                           ;CLDTP1.c: 68: }
  3210                           ;CLDTP1.c: 72: data = (data >> 1);
  3211  04FE  0823               	movf	(onewire_read@data),w
  3212  04FF  00F4               	movwf	(??_onewire_read+0)+0
  3213  0500  1003               	clrc
  3214  0501  0C74               	rrf	(??_onewire_read+0)+0,w
  3215  0502  00F5               	movwf	(??_onewire_read+1)+0
  3216  0503  0875               	movf	(??_onewire_read+1)+0,w
  3217  0504  00A3               	movwf	(onewire_read@data)
  3218                           	line	73
  3219                           	
  3220  0505                     l5399:	
  3221                           ;CLDTP1.c: 73: if (databit > 0)
  3222  0505  0820               	movf	(onewire_read@databit),w
  3223  0506  1D03               	skipz
  3224  0507  2D09               	goto	u3320
  3225  0508  2D10               	goto	l2407
  3226  0509                     u3320:
  3227                           	line	75
  3228                           	
  3229  0509                     l5401:	
  3230                           ;CLDTP1.c: 74: {
  3231                           ;CLDTP1.c: 75: data = (data + 0b10000000);
  3232  0509  0823               	movf	(onewire_read@data),w
  3233  050A  3E80               	addlw	080h
  3234  050B  00F4               	movwf	(??_onewire_read+0)+0
  3235  050C  0874               	movf	(??_onewire_read+0)+0,w
  3236  050D  00A3               	movwf	(onewire_read@data)
  3237  050E  2D10               	goto	l2407
  3238                           	line	76
  3239                           	
  3240  050F                     l2406:	
  3241                           	line	80
  3242                           ;CLDTP1.c: 76: }
  3243                           ;CLDTP1.c: 80: while((PORTB & 0b10000000) == 0)
  3244  050F  2D10               	goto	l2407
  3245                           	
  3246  0510                     l2408:	
  3247                           	line	81
  3248                           ;CLDTP1.c: 81: {}
  3249                           	
  3250  0510                     l2407:	
  3251                           	line	80
  3252  0510  1F86               	btfss	(6),(7)&7
  3253  0511  2D13               	goto	u3331
  3254  0512  2D14               	goto	u3330
  3255  0513                     u3331:
  3256  0513  2D10               	goto	l2407
  3257  0514                     u3330:
  3258  0514  2D15               	goto	l5403
  3259                           	
  3260  0515                     l2409:	
  3261                           	line	83
  3262                           	
  3263  0515                     l5403:	
  3264                           ;CLDTP1.c: 83: if (count > 1)
  3265  0515  0822               	movf	(onewire_read@count+1),w
  3266  0516  3A80               	xorlw	80h
  3267  0517  00FF               	movwf	btemp+1
  3268  0518  3080               	movlw	(high(02h))^80h
  3269  0519  027F               	subwf	btemp+1,w
  3270  051A  1D03               	skipz
  3271  051B  2D1E               	goto	u3345
  3272  051C  3002               	movlw	low(02h)
  3273  051D  0221               	subwf	(onewire_read@count),w
  3274  051E                     u3345:
  3275                           
  3276  051E  1C03               	skipc
  3277  051F  2D21               	goto	u3341
  3278  0520  2D22               	goto	u3340
  3279  0521                     u3341:
  3280  0521  2D2C               	goto	l5407
  3281  0522                     u3340:
  3282  0522  2D24               	goto	l2411
  3283                           	line	85
  3284                           	
  3285  0523                     l5405:	
  3286                           ;CLDTP1.c: 84: {
  3287                           ;CLDTP1.c: 85: while((PORTB & 0b10000000) > 0)
  3288  0523  2D24               	goto	l2411
  3289                           	
  3290  0524                     l2412:	
  3291                           	line	86
  3292                           ;CLDTP1.c: 86: {}
  3293                           	
  3294  0524                     l2411:	
  3295                           	line	85
  3296  0524  1283               	bcf	status, 5	;RP0=0, select bank0
  3297  0525  1303               	bcf	status, 6	;RP1=0, select bank0
  3298  0526  1B86               	btfsc	(6),(7)&7
  3299  0527  2D29               	goto	u3351
  3300  0528  2D2A               	goto	u3350
  3301  0529                     u3351:
  3302  0529  2D24               	goto	l2411
  3303  052A                     u3350:
  3304  052A  2D2C               	goto	l5407
  3305                           	
  3306  052B                     l2413:	
  3307  052B  2D2C               	goto	l5407
  3308                           	line	87
  3309                           	
  3310  052C                     l2410:	
  3311                           	line	56
  3312                           	
  3313  052C                     l5407:	
  3314  052C  30FF               	movlw	low(-1)
  3315  052D  1283               	bcf	status, 5	;RP0=0, select bank0
  3316  052E  1303               	bcf	status, 6	;RP1=0, select bank0
  3317  052F  07A1               	addwf	(onewire_read@count),f
  3318  0530  1803               	skipnc
  3319  0531  0AA2               	incf	(onewire_read@count+1),f
  3320  0532  30FF               	movlw	high(-1)
  3321  0533  07A2               	addwf	(onewire_read@count+1),f
  3322                           	
  3323  0534                     l5409:	
  3324  0534  0822               	movf	(onewire_read@count+1),w
  3325  0535  3A80               	xorlw	80h
  3326  0536  00FF               	movwf	btemp+1
  3327  0537  3080               	movlw	(high(01h))^80h
  3328  0538  027F               	subwf	btemp+1,w
  3329  0539  1D03               	skipz
  3330  053A  2D3D               	goto	u3365
  3331  053B  3001               	movlw	low(01h)
  3332  053C  0221               	subwf	(onewire_read@count),w
  3333  053D                     u3365:
  3334                           
  3335  053D  1803               	skipnc
  3336  053E  2D40               	goto	u3361
  3337  053F  2D41               	goto	u3360
  3338  0540                     u3361:
  3339  0540  2CED               	goto	l5391
  3340  0541                     u3360:
  3341  0541  2D42               	goto	l5411
  3342                           	
  3343  0542                     l2403:	
  3344                           	line	90
  3345                           	
  3346  0542                     l5411:	
  3347                           ;CLDTP1.c: 87: }
  3348                           ;CLDTP1.c: 89: }
  3349                           ;CLDTP1.c: 90: return data;
  3350  0542  1283               	bcf	status, 5	;RP0=0, select bank0
  3351  0543  1303               	bcf	status, 6	;RP1=0, select bank0
  3352  0544  0823               	movf	(onewire_read@data),w
  3353  0545  2D46               	goto	l2414
  3354                           	
  3355  0546                     l5413:	
  3356                           	line	91
  3357                           	
  3358  0546                     l2414:	
  3359  0546  0008               	return
  3360                           	opt stack 0
  3361                           GLOBAL	__end_of_onewire_read
  3362  0547                     	__end_of_onewire_read:
  3363 ;; =============== function _onewire_read ends ============
  3364                           
  3365                           	signat	_onewire_read,89
  3366                           	global	_onewire_write
  3367                           psect	text415,local,class=CODE,delta=2
  3368                           global __ptext415
  3369  0547                     __ptext415:
  3370                           
  3371 ;; *************** function _onewire_write *****************
  3372 ;; Defined at:
  3373 ;;		line 17 in file "CLDTP1.c"
  3374 ;; Parameters:    Size  Location     Type
  3375 ;;  data            1    wreg     unsigned char 
  3376 ;; Auto vars:     Size  Location     Type
  3377 ;;  data            1    0[BANK0 ] unsigned char 
  3378 ;;  lsb             1    3[BANK0 ] unsigned char 
  3379 ;;  count           2    1[BANK0 ] int 
  3380 ;; Return value:  Size  Location     Type
  3381 ;;		None               void
  3382 ;; Registers used:
  3383 ;;		wreg, status,2, status,0, btemp+1
  3384 ;; Tracked objects:
  3385 ;;		On entry : 0/0
  3386 ;;		On exit  : 0/0
  3387 ;;		Unchanged: 0/0
  3388 ;; Data sizes:     COMMON   BANK0   BANK1   BANK2
  3389 ;;      Params:         0       0       0       0
  3390 ;;      Locals:         0       4       0       0
  3391 ;;      Temps:          2       0       0       0
  3392 ;;      Totals:         2       4       0       0
  3393 ;;Total ram usage:        6 bytes
  3394 ;; Hardware stack levels used:    1
  3395 ;; Hardware stack levels required when called:    1
  3396 ;; This function calls:
  3397 ;;		Nothing
  3398 ;; This function is called by:
  3399 ;;		_onewire_sendpacket
  3400 ;; This function uses a non-reentrant model
  3401 ;;
  3402                           psect	text415
  3403                           	file	"CLDTP1.c"
  3404                           	line	17
  3405                           	global	__size_of_onewire_write
  3406  0068                     	__size_of_onewire_write	equ	__end_of_onewire_write-_onewire_write
  3407                           	
  3408  0547                     _onewire_write:	
  3409                           	opt	stack 5
  3410                           ; Regs used in _onewire_write: [wreg+status,2+status,0+btemp+1]
  3411                           ;onewire_write@data stored from wreg
  3412  0547  1283               	bcf	status, 5	;RP0=0, select bank0
  3413  0548  1303               	bcf	status, 6	;RP1=0, select bank0
  3414  0549  00A0               	movwf	(onewire_write@data)
  3415                           	line	18
  3416                           	
  3417  054A                     l5357:	
  3418                           ;CLDTP1.c: 18: for (int count = 8;count > 0; count--)
  3419  054A  3008               	movlw	low(08h)
  3420  054B  00A1               	movwf	(onewire_write@count)
  3421  054C  3000               	movlw	high(08h)
  3422  054D  00A2               	movwf	((onewire_write@count))+1
  3423                           	
  3424  054E                     l5359:	
  3425  054E  0822               	movf	(onewire_write@count+1),w
  3426  054F  3A80               	xorlw	80h
  3427  0550  00FF               	movwf	btemp+1
  3428  0551  3080               	movlw	(high(01h))^80h
  3429  0552  027F               	subwf	btemp+1,w
  3430  0553  1D03               	skipz
  3431  0554  2D57               	goto	u3255
  3432  0555  3001               	movlw	low(01h)
  3433  0556  0221               	subwf	(onewire_write@count),w
  3434  0557                     u3255:
  3435                           
  3436  0557  1803               	skipnc
  3437  0558  2D5A               	goto	u3251
  3438  0559  2D5B               	goto	u3250
  3439  055A                     u3251:
  3440  055A  2D5D               	goto	l5363
  3441  055B                     u3250:
  3442  055B  2DAA               	goto	l5381
  3443                           	
  3444  055C                     l5361:	
  3445  055C  2DAA               	goto	l5381
  3446                           	line	19
  3447                           	
  3448  055D                     l2395:	
  3449                           	line	20
  3450                           	
  3451  055D                     l5363:	
  3452                           ;CLDTP1.c: 19: {
  3453                           ;CLDTP1.c: 20: char lsb = data & 0x01;
  3454  055D  1283               	bcf	status, 5	;RP0=0, select bank0
  3455  055E  1303               	bcf	status, 6	;RP1=0, select bank0
  3456  055F  0820               	movf	(onewire_write@data),w
  3457  0560  3901               	andlw	01h
  3458  0561  00F4               	movwf	(??_onewire_write+0)+0
  3459  0562  0874               	movf	(??_onewire_write+0)+0,w
  3460  0563  00A3               	movwf	(onewire_write@lsb)
  3461                           	line	22
  3462                           	
  3463  0564                     l5365:	
  3464                           ;CLDTP1.c: 22: if (lsb > 0)
  3465  0564  0823               	movf	(onewire_write@lsb),w
  3466  0565  1D03               	skipz
  3467  0566  2D68               	goto	u3260
  3468  0567  2D6C               	goto	l2397
  3469  0568                     u3260:
  3470                           	line	24
  3471                           	
  3472  0568                     l5367:	
  3473                           ;CLDTP1.c: 23: {
  3474                           ;CLDTP1.c: 24: lsb = 1;
  3475  0568  01A3               	clrf	(onewire_write@lsb)
  3476  0569  1403               	bsf	status,0
  3477  056A  0DA3               	rlf	(onewire_write@lsb),f
  3478                           	line	25
  3479                           ;CLDTP1.c: 25: }
  3480  056B  2D6D               	goto	l2398
  3481                           	line	26
  3482                           	
  3483  056C                     l2397:	
  3484                           	line	28
  3485                           ;CLDTP1.c: 26: else
  3486                           ;CLDTP1.c: 27: {
  3487                           ;CLDTP1.c: 28: lsb = 0;
  3488  056C  01A3               	clrf	(onewire_write@lsb)
  3489                           	line	29
  3490                           	
  3491  056D                     l2398:	
  3492                           	line	32
  3493                           ;CLDTP1.c: 29: }
  3494                           ;CLDTP1.c: 32: TRISB7=0;
  3495  056D  1683               	bsf	status, 5	;RP0=1, select bank1
  3496  056E  1303               	bcf	status, 6	;RP1=0, select bank1
  3497  056F  1386               	bcf	(1079/8)^080h,(1079)&7
  3498                           	line	33
  3499                           	
  3500  0570                     l5369:	
  3501                           ;CLDTP1.c: 33: _delay((unsigned long)((7)*(8000000/4000000.0)));
  3502                           	opt asmopt_off
  3503  0570  3004               movlw	4
  3504  0571  00F4               movwf	(??_onewire_write+0)+0,f
  3505  0572                     u4047:
  3506  0572  0BF4               decfsz	(??_onewire_write+0)+0,f
  3507  0573  2D72               	goto	u4047
  3508  0574  0064               	clrwdt
  3509                           opt asmopt_on
  3510                           
  3511                           	line	36
  3512                           	
  3513  0575                     l5371:	
  3514                           ;CLDTP1.c: 36: TRISB7 = lsb;
  3515  0575  1283               	bcf	status, 5	;RP0=0, select bank0
  3516  0576  1303               	bcf	status, 6	;RP1=0, select bank0
  3517  0577  1823               	btfsc	(onewire_write@lsb),0
  3518  0578  2D7A               	goto	u3271
  3519  0579  2D7E               	goto	u3270
  3520                           	
  3521  057A                     u3271:
  3522  057A  1683               	bsf	status, 5	;RP0=1, select bank1
  3523  057B  1303               	bcf	status, 6	;RP1=0, select bank1
  3524  057C  1786               	bsf	(1079/8)^080h,(1079)&7
  3525  057D  2D81               	goto	u3284
  3526  057E                     u3270:
  3527  057E  1683               	bsf	status, 5	;RP0=1, select bank1
  3528  057F  1303               	bcf	status, 6	;RP1=0, select bank1
  3529  0580  1386               	bcf	(1079/8)^080h,(1079)&7
  3530  0581                     u3284:
  3531                           	line	37
  3532                           ;CLDTP1.c: 37: _delay((unsigned long)((55)*(8000000/4000000.0)));
  3533                           	opt asmopt_off
  3534  0581  3024               movlw	36
  3535  0582  00F4               movwf	(??_onewire_write+0)+0,f
  3536  0583                     u4057:
  3537  0583  0BF4               decfsz	(??_onewire_write+0)+0,f
  3538  0584  2D83               	goto	u4057
  3539  0585  0064               	clrwdt
  3540                           opt asmopt_on
  3541                           
  3542                           	line	41
  3543                           	
  3544  0586                     l5373:	
  3545                           ;CLDTP1.c: 41: TRISB7 = 1;
  3546  0586  1683               	bsf	status, 5	;RP0=1, select bank1
  3547  0587  1303               	bcf	status, 6	;RP1=0, select bank1
  3548  0588  1786               	bsf	(1079/8)^080h,(1079)&7
  3549                           	line	44
  3550                           ;CLDTP1.c: 44: _delay((unsigned long)((5)*(8000000/4000000.0)));
  3551                           	opt asmopt_off
  3552  0589  3003               movlw	3
  3553  058A  00F4               movwf	(??_onewire_write+0)+0,f
  3554  058B                     u4067:
  3555  058B  0BF4               decfsz	(??_onewire_write+0)+0,f
  3556  058C  2D8B               	goto	u4067
  3557                           opt asmopt_on
  3558                           
  3559                           	line	47
  3560                           	
  3561  058D                     l5375:	
  3562                           ;CLDTP1.c: 47: data = data>>1;
  3563  058D  1283               	bcf	status, 5	;RP0=0, select bank0
  3564  058E  1303               	bcf	status, 6	;RP1=0, select bank0
  3565  058F  0820               	movf	(onewire_write@data),w
  3566  0590  00F4               	movwf	(??_onewire_write+0)+0
  3567  0591  1003               	clrc
  3568  0592  0C74               	rrf	(??_onewire_write+0)+0,w
  3569  0593  00F5               	movwf	(??_onewire_write+1)+0
  3570  0594  0875               	movf	(??_onewire_write+1)+0,w
  3571  0595  00A0               	movwf	(onewire_write@data)
  3572                           	line	18
  3573                           	
  3574  0596                     l5377:	
  3575  0596  30FF               	movlw	low(-1)
  3576  0597  07A1               	addwf	(onewire_write@count),f
  3577  0598  1803               	skipnc
  3578  0599  0AA2               	incf	(onewire_write@count+1),f
  3579  059A  30FF               	movlw	high(-1)
  3580  059B  07A2               	addwf	(onewire_write@count+1),f
  3581                           	
  3582  059C                     l5379:	
  3583  059C  0822               	movf	(onewire_write@count+1),w
  3584  059D  3A80               	xorlw	80h
  3585  059E  00FF               	movwf	btemp+1
  3586  059F  3080               	movlw	(high(01h))^80h
  3587  05A0  027F               	subwf	btemp+1,w
  3588  05A1  1D03               	skipz
  3589  05A2  2DA5               	goto	u3295
  3590  05A3  3001               	movlw	low(01h)
  3591  05A4  0221               	subwf	(onewire_write@count),w
  3592  05A5                     u3295:
  3593                           
  3594  05A5  1803               	skipnc
  3595  05A6  2DA8               	goto	u3291
  3596  05A7  2DA9               	goto	u3290
  3597  05A8                     u3291:
  3598  05A8  2D5D               	goto	l5363
  3599  05A9                     u3290:
  3600  05A9  2DAA               	goto	l5381
  3601                           	
  3602  05AA                     l2396:	
  3603                           	line	49
  3604                           	
  3605  05AA                     l5381:	
  3606                           ;CLDTP1.c: 48: }
  3607                           ;CLDTP1.c: 49: _delay((unsigned long)((5)*(8000000/4000000.0)));
  3608                           	opt asmopt_off
  3609  05AA  3003               movlw	3
  3610  05AB  00F4               movwf	(??_onewire_write+0)+0,f
  3611  05AC                     u4077:
  3612  05AC  0BF4               decfsz	(??_onewire_write+0)+0,f
  3613  05AD  2DAC               	goto	u4077
  3614                           opt asmopt_on
  3615                           
  3616                           	line	50
  3617                           	
  3618  05AE                     l2399:	
  3619  05AE  0008               	return
  3620                           	opt stack 0
  3621                           GLOBAL	__end_of_onewire_write
  3622  05AF                     	__end_of_onewire_write:
  3623 ;; =============== function _onewire_write ends ============
  3624                           
  3625                           	signat	_onewire_write,4216
  3626                           	global	_CalculateAverageHumidity
  3627                           psect	text416,local,class=CODE,delta=2
  3628                           global __ptext416
  3629  0455                     __ptext416:
  3630                           
  3631 ;; *************** function _CalculateAverageHumidity *****************
  3632 ;; Defined at:
  3633 ;;		line 74 in file "CLCP001.c"
  3634 ;; Parameters:    Size  Location     Type
  3635 ;;  HumidityArra    1    wreg     PTR unsigned char [2]
  3636 ;;		 -> main@Humidity(8), 
  3637 ;; Auto vars:     Size  Location     Type
  3638 ;;  HumidityArra    1   14[BANK0 ] PTR unsigned char [2]
  3639 ;;		 -> main@Humidity(8), 
  3640 ;;  i               2   15[BANK0 ] int 
  3641 ;;  HumidSensorC    2   12[BANK0 ] unsigned int 
  3642 ;;  HumiditySum     2   10[BANK0 ] unsigned int 
  3643 ;; Return value:  Size  Location     Type
  3644 ;;                  2    3[BANK0 ] unsigned int 
  3645 ;; Registers used:
  3646 ;;		wreg, fsr0l, fsr0h, status,2, status,0, btemp+1, pclath, cstack
  3647 ;; Tracked objects:
  3648 ;;		On entry : 0/0
  3649 ;;		On exit  : 0/0
  3650 ;;		Unchanged: 0/0
  3651 ;; Data sizes:     COMMON   BANK0   BANK1   BANK2
  3652 ;;      Params:         0       2       0       0
  3653 ;;      Locals:         0       7       0       0
  3654 ;;      Temps:          0       5       0       0
  3655 ;;      Totals:         0      14       0       0
  3656 ;;Total ram usage:       14 bytes
  3657 ;; Hardware stack levels used:    1
  3658 ;; Hardware stack levels required when called:    2
  3659 ;; This function calls:
  3660 ;;		___lwdiv
  3661 ;; This function is called by:
  3662 ;;		_main
  3663 ;; This function uses a non-reentrant model
  3664 ;;
  3665                           psect	text416
  3666                           	file	"CLCP001.c"
  3667                           	line	74
  3668                           	global	__size_of_CalculateAverageHumidity
  3669  0081                     	__size_of_CalculateAverageHumidity	equ	__end_of_CalculateAverageHumidity-_CalculateAver
                                 ageHumidity
  3670                           	
  3671  0455                     _CalculateAverageHumidity:	
  3672                           	opt	stack 5
  3673                           ; Regs used in _CalculateAverageHumidity: [wreg-fsr0h+status,2+status,0+btemp+1+pclath+c
                                 stack]
  3674                           ;CalculateAverageHumidity@HumidityArray stored from wreg
  3675                           	line	76
  3676  0455  1283               	bcf	status, 5	;RP0=0, select bank0
  3677  0456  1303               	bcf	status, 6	;RP1=0, select bank0
  3678  0457  00AE               	movwf	(CalculateAverageHumidity@HumidityArray)
  3679                           	
  3680  0458                     l4991:	
  3681                           ;CLCP001.c: 75: unsigned int HumidSensorCount;
  3682                           ;CLCP001.c: 76: HumidSensorCount = 0;
  3683  0458  01AC               	clrf	(CalculateAverageHumidity@HumidSensorCount)
  3684  0459  01AD               	clrf	(CalculateAverageHumidity@HumidSensorCount+1)
  3685                           	line	79
  3686                           ;CLCP001.c: 78: unsigned int HumiditySum;
  3687                           ;CLCP001.c: 79: HumiditySum = 0;
  3688  045A  01AA               	clrf	(CalculateAverageHumidity@HumiditySum)
  3689  045B  01AB               	clrf	(CalculateAverageHumidity@HumiditySum+1)
  3690                           	line	81
  3691                           ;CLCP001.c: 81: for (int i = 0; i < 4; i ++)
  3692  045C  01AF               	clrf	(CalculateAverageHumidity@i)
  3693  045D  01B0               	clrf	(CalculateAverageHumidity@i+1)
  3694                           	
  3695  045E                     l4993:	
  3696  045E  0830               	movf	(CalculateAverageHumidity@i+1),w
  3697  045F  3A80               	xorlw	80h
  3698  0460  00FF               	movwf	btemp+1
  3699  0461  3080               	movlw	(high(04h))^80h
  3700  0462  027F               	subwf	btemp+1,w
  3701  0463  1D03               	skipz
  3702  0464  2C67               	goto	u2805
  3703  0465  3004               	movlw	low(04h)
  3704  0466  022F               	subwf	(CalculateAverageHumidity@i),w
  3705  0467                     u2805:
  3706                           
  3707  0467  1C03               	skipc
  3708  0468  2C6A               	goto	u2801
  3709  0469  2C6B               	goto	u2800
  3710  046A                     u2801:
  3711  046A  2C6D               	goto	l4997
  3712  046B                     u2800:
  3713  046B  2CAF               	goto	l5007
  3714                           	
  3715  046C                     l4995:	
  3716  046C  2CAF               	goto	l5007
  3717                           	line	82
  3718                           	
  3719  046D                     l744:	
  3720                           	line	83
  3721                           	
  3722  046D                     l4997:	
  3723                           ;CLCP001.c: 82: {
  3724                           ;CLCP001.c: 83: if ((HumidityArray[i][0]) != 0xFF)
  3725  046D  1283               	bcf	status, 5	;RP0=0, select bank0
  3726  046E  1303               	bcf	status, 6	;RP1=0, select bank0
  3727  046F  082F               	movf	(CalculateAverageHumidity@i),w
  3728  0470  00A5               	movwf	(??_CalculateAverageHumidity+0)+0
  3729  0471  0725               	addwf	(??_CalculateAverageHumidity+0)+0,w
  3730  0472  072E               	addwf	(CalculateAverageHumidity@HumidityArray),w
  3731  0473  00A6               	movwf	(??_CalculateAverageHumidity+1)+0
  3732  0474  0826               	movf	0+(??_CalculateAverageHumidity+1)+0,w
  3733  0475  0084               	movwf	fsr0
  3734  0476  1383               	bcf	status, 7	;select IRP bank0
  3735  0477  0800               	movf	indf,w
  3736  0478  3AFF               	xorlw	0FFh
  3737  0479  1903               	skipnz
  3738  047A  2C7C               	goto	u2811
  3739  047B  2C7D               	goto	u2810
  3740  047C                     u2811:
  3741  047C  2C9B               	goto	l5003
  3742  047D                     u2810:
  3743                           	line	85
  3744                           	
  3745  047D                     l4999:	
  3746                           ;CLCP001.c: 84: {
  3747                           ;CLCP001.c: 85: HumidSensorCount++;
  3748  047D  3001               	movlw	low(01h)
  3749  047E  07AC               	addwf	(CalculateAverageHumidity@HumidSensorCount),f
  3750  047F  1803               	skipnc
  3751  0480  0AAD               	incf	(CalculateAverageHumidity@HumidSensorCount+1),f
  3752  0481  3000               	movlw	high(01h)
  3753  0482  07AD               	addwf	(CalculateAverageHumidity@HumidSensorCount+1),f
  3754                           	line	86
  3755                           	
  3756  0483                     l5001:	
  3757                           ;CLCP001.c: 86: HumiditySum += ((HumidityArray[i][0]<<8) + HumidityArray[i][1]);
  3758  0483  082F               	movf	(CalculateAverageHumidity@i),w
  3759  0484  00A5               	movwf	(??_CalculateAverageHumidity+0)+0
  3760  0485  0725               	addwf	(??_CalculateAverageHumidity+0)+0,w
  3761  0486  072E               	addwf	(CalculateAverageHumidity@HumidityArray),w
  3762  0487  00A6               	movwf	(??_CalculateAverageHumidity+1)+0
  3763  0488  0826               	movf	0+(??_CalculateAverageHumidity+1)+0,w
  3764  0489  0084               	movwf	fsr
  3765  048A  0800               	movf	indf,w
  3766  048B  00A7               	movwf	(??_CalculateAverageHumidity+2)+0
  3767  048C  082F               	movf	(CalculateAverageHumidity@i),w
  3768  048D  00A8               	movwf	(??_CalculateAverageHumidity+3)+0
  3769  048E  0728               	addwf	(??_CalculateAverageHumidity+3)+0,w
  3770  048F  072E               	addwf	(CalculateAverageHumidity@HumidityArray),w
  3771  0490  00A9               	movwf	(??_CalculateAverageHumidity+4)+0
  3772  0491  0829               	movf	0+(??_CalculateAverageHumidity+4)+0,w
  3773  0492  3E01               	addlw	01h
  3774  0493  0084               	movwf	fsr0
  3775  0494  0800               	movf	indf,w
  3776  0495  07AA               	addwf	(CalculateAverageHumidity@HumiditySum),f
  3777  0496  1803               	skipnc
  3778  0497  0AAB               	incf	(CalculateAverageHumidity@HumiditySum+1),f
  3779  0498  0827               	movf	(??_CalculateAverageHumidity+2)+0,w
  3780  0499  07AB               	addwf	(CalculateAverageHumidity@HumiditySum+1),f
  3781  049A  2C9B               	goto	l5003
  3782                           	line	87
  3783                           	
  3784  049B                     l746:	
  3785                           	line	81
  3786                           	
  3787  049B                     l5003:	
  3788  049B  3001               	movlw	low(01h)
  3789  049C  07AF               	addwf	(CalculateAverageHumidity@i),f
  3790  049D  1803               	skipnc
  3791  049E  0AB0               	incf	(CalculateAverageHumidity@i+1),f
  3792  049F  3000               	movlw	high(01h)
  3793  04A0  07B0               	addwf	(CalculateAverageHumidity@i+1),f
  3794                           	
  3795  04A1                     l5005:	
  3796  04A1  0830               	movf	(CalculateAverageHumidity@i+1),w
  3797  04A2  3A80               	xorlw	80h
  3798  04A3  00FF               	movwf	btemp+1
  3799  04A4  3080               	movlw	(high(04h))^80h
  3800  04A5  027F               	subwf	btemp+1,w
  3801  04A6  1D03               	skipz
  3802  04A7  2CAA               	goto	u2825
  3803  04A8  3004               	movlw	low(04h)
  3804  04A9  022F               	subwf	(CalculateAverageHumidity@i),w
  3805  04AA                     u2825:
  3806                           
  3807  04AA  1C03               	skipc
  3808  04AB  2CAD               	goto	u2821
  3809  04AC  2CAE               	goto	u2820
  3810  04AD                     u2821:
  3811  04AD  2C6D               	goto	l4997
  3812  04AE                     u2820:
  3813  04AE  2CAF               	goto	l5007
  3814                           	
  3815  04AF                     l745:	
  3816                           	line	90
  3817                           	
  3818  04AF                     l5007:	
  3819                           ;CLCP001.c: 87: }
  3820                           ;CLCP001.c: 88: }
  3821                           ;CLCP001.c: 90: if (HumidSensorCount > 0)
  3822  04AF  1283               	bcf	status, 5	;RP0=0, select bank0
  3823  04B0  1303               	bcf	status, 6	;RP1=0, select bank0
  3824  04B1  082D               	movf	(CalculateAverageHumidity@HumidSensorCount+1),w
  3825  04B2  042C               	iorwf	(CalculateAverageHumidity@HumidSensorCount),w
  3826  04B3  1903               	skipnz
  3827  04B4  2CB6               	goto	u2831
  3828  04B5  2CB7               	goto	u2830
  3829  04B6                     u2831:
  3830  04B6  2CD1               	goto	l5015
  3831  04B7                     u2830:
  3832                           	line	92
  3833                           	
  3834  04B7                     l5009:	
  3835                           ;CLCP001.c: 91: {
  3836                           ;CLCP001.c: 92: return HumiditySum / HumidSensorCount;
  3837  04B7  082D               	movf	(CalculateAverageHumidity@HumidSensorCount+1),w
  3838  04B8  01F5               	clrf	(?___lwdiv+1)
  3839  04B9  07F5               	addwf	(?___lwdiv+1)
  3840  04BA  082C               	movf	(CalculateAverageHumidity@HumidSensorCount),w
  3841  04BB  01F4               	clrf	(?___lwdiv)
  3842  04BC  07F4               	addwf	(?___lwdiv)
  3843                           
  3844  04BD  082B               	movf	(CalculateAverageHumidity@HumiditySum+1),w
  3845  04BE  01F7               	clrf	1+(?___lwdiv)+02h
  3846  04BF  07F7               	addwf	1+(?___lwdiv)+02h
  3847  04C0  082A               	movf	(CalculateAverageHumidity@HumiditySum),w
  3848  04C1  01F6               	clrf	0+(?___lwdiv)+02h
  3849  04C2  07F6               	addwf	0+(?___lwdiv)+02h
  3850                           
  3851  04C3  118A  25AF  118A   	fcall	___lwdiv
  3852  04C6  0875               	movf	(1+(?___lwdiv)),w
  3853  04C7  1283               	bcf	status, 5	;RP0=0, select bank0
  3854  04C8  1303               	bcf	status, 6	;RP1=0, select bank0
  3855  04C9  01A4               	clrf	(?_CalculateAverageHumidity+1)
  3856  04CA  07A4               	addwf	(?_CalculateAverageHumidity+1)
  3857  04CB  0874               	movf	(0+(?___lwdiv)),w
  3858  04CC  01A3               	clrf	(?_CalculateAverageHumidity)
  3859  04CD  07A3               	addwf	(?_CalculateAverageHumidity)
  3860                           
  3861  04CE  2CD5               	goto	l748
  3862                           	
  3863  04CF                     l5011:	
  3864  04CF  2CD5               	goto	l748
  3865                           	line	94
  3866                           	
  3867  04D0                     l5013:	
  3868                           ;CLCP001.c: 94: }
  3869  04D0  2CD5               	goto	l748
  3870                           	line	95
  3871                           	
  3872  04D1                     l747:	
  3873                           	line	97
  3874                           	
  3875  04D1                     l5015:	
  3876                           ;CLCP001.c: 95: else
  3877                           ;CLCP001.c: 96: {
  3878                           ;CLCP001.c: 97: return 0x00;
  3879  04D1  01A3               	clrf	(?_CalculateAverageHumidity)
  3880  04D2  01A4               	clrf	(?_CalculateAverageHumidity+1)
  3881  04D3  2CD5               	goto	l748
  3882                           	
  3883  04D4                     l5017:	
  3884  04D4  2CD5               	goto	l748
  3885                           	line	98
  3886                           	
  3887  04D5                     l749:	
  3888                           	line	100
  3889                           	
  3890  04D5                     l748:	
  3891  04D5  0008               	return
  3892                           	opt stack 0
  3893                           GLOBAL	__end_of_CalculateAverageHumidity
  3894  04D6                     	__end_of_CalculateAverageHumidity:
  3895 ;; =============== function _CalculateAverageHumidity ends ============
  3896                           
  3897                           	signat	_CalculateAverageHumidity,4218
  3898                           	global	___lwdiv
  3899                           psect	text417,local,class=CODE,delta=2
  3900                           global __ptext417
  3901  05AF                     __ptext417:
  3902                           
  3903 ;; *************** function ___lwdiv *****************
  3904 ;; Defined at:
  3905 ;;		line 5 in file "C:\Program Files (x86)\HI-TECH Software\PICC\9.83\sources\lwdiv.c"
  3906 ;; Parameters:    Size  Location     Type
  3907 ;;  divisor         2    4[COMMON] unsigned int 
  3908 ;;  dividend        2    6[COMMON] unsigned int 
  3909 ;; Auto vars:     Size  Location     Type
  3910 ;;  quotient        2    0[BANK0 ] unsigned int 
  3911 ;;  counter         1    2[BANK0 ] unsigned char 
  3912 ;; Return value:  Size  Location     Type
  3913 ;;                  2    4[COMMON] unsigned int 
  3914 ;; Registers used:
  3915 ;;		wreg, status,2, status,0
  3916 ;; Tracked objects:
  3917 ;;		On entry : 0/0
  3918 ;;		On exit  : 0/0
  3919 ;;		Unchanged: 0/0
  3920 ;; Data sizes:     COMMON   BANK0   BANK1   BANK2
  3921 ;;      Params:         4       0       0       0
  3922 ;;      Locals:         0       3       0       0
  3923 ;;      Temps:          1       0       0       0
  3924 ;;      Totals:         5       3       0       0
  3925 ;;Total ram usage:        8 bytes
  3926 ;; Hardware stack levels used:    1
  3927 ;; Hardware stack levels required when called:    1
  3928 ;; This function calls:
  3929 ;;		Nothing
  3930 ;; This function is called by:
  3931 ;;		_CalculateAverageHumidity
  3932 ;; This function uses a non-reentrant model
  3933 ;;
  3934                           psect	text417
  3935                           	file	"C:\Program Files (x86)\HI-TECH Software\PICC\9.83\sources\lwdiv.c"
  3936                           	line	5
  3937                           	global	__size_of___lwdiv
  3938  0050                     	__size_of___lwdiv	equ	__end_of___lwdiv-___lwdiv
  3939                           	
  3940  05AF                     ___lwdiv:	
  3941                           	opt	stack 5
  3942                           ; Regs used in ___lwdiv: [wreg+status,2+status,0]
  3943                           	line	9
  3944                           	
  3945  05AF                     l4965:	
  3946  05AF  1283               	bcf	status, 5	;RP0=0, select bank0
  3947  05B0  1303               	bcf	status, 6	;RP1=0, select bank0
  3948  05B1  01A0               	clrf	(___lwdiv@quotient)
  3949  05B2  01A1               	clrf	(___lwdiv@quotient+1)
  3950                           	line	10
  3951                           	
  3952  05B3                     l4967:	
  3953  05B3  0875               	movf	(___lwdiv@divisor+1),w
  3954  05B4  0474               	iorwf	(___lwdiv@divisor),w
  3955  05B5  1903               	skipnz
  3956  05B6  2DB8               	goto	u2731
  3957  05B7  2DB9               	goto	u2730
  3958  05B8                     u2731:
  3959  05B8  2DF7               	goto	l4987
  3960  05B9                     u2730:
  3961                           	line	11
  3962                           	
  3963  05B9                     l4969:	
  3964  05B9  01A2               	clrf	(___lwdiv@counter)
  3965  05BA  1403               	bsf	status,0
  3966  05BB  0DA2               	rlf	(___lwdiv@counter),f
  3967                           	line	12
  3968  05BC  2DC9               	goto	l4975
  3969                           	
  3970  05BD                     l3313:	
  3971                           	line	13
  3972                           	
  3973  05BD                     l4971:	
  3974  05BD  3001               	movlw	01h
  3975                           	
  3976  05BE                     u2745:
  3977  05BE  1003               	clrc
  3978  05BF  0DF4               	rlf	(___lwdiv@divisor),f
  3979  05C0  0DF5               	rlf	(___lwdiv@divisor+1),f
  3980  05C1  3EFF               	addlw	-1
  3981  05C2  1D03               	skipz
  3982  05C3  2DBE               	goto	u2745
  3983                           	line	14
  3984                           	
  3985  05C4                     l4973:	
  3986  05C4  3001               	movlw	(01h)
  3987  05C5  00F8               	movwf	(??___lwdiv+0)+0
  3988  05C6  0878               	movf	(??___lwdiv+0)+0,w
  3989  05C7  07A2               	addwf	(___lwdiv@counter),f
  3990  05C8  2DC9               	goto	l4975
  3991                           	line	15
  3992                           	
  3993  05C9                     l3312:	
  3994                           	line	12
  3995                           	
  3996  05C9                     l4975:	
  3997  05C9  1FF5               	btfss	(___lwdiv@divisor+1),(15)&7
  3998  05CA  2DCC               	goto	u2751
  3999  05CB  2DCD               	goto	u2750
  4000  05CC                     u2751:
  4001  05CC  2DBD               	goto	l4971
  4002  05CD                     u2750:
  4003  05CD  2DCF               	goto	l4977
  4004                           	
  4005  05CE                     l3314:	
  4006  05CE  2DCF               	goto	l4977
  4007                           	line	16
  4008                           	
  4009  05CF                     l3315:	
  4010                           	line	17
  4011                           	
  4012  05CF                     l4977:	
  4013  05CF  3001               	movlw	01h
  4014                           	
  4015  05D0                     u2765:
  4016  05D0  1003               	clrc
  4017  05D1  0DA0               	rlf	(___lwdiv@quotient),f
  4018  05D2  0DA1               	rlf	(___lwdiv@quotient+1),f
  4019  05D3  3EFF               	addlw	-1
  4020  05D4  1D03               	skipz
  4021  05D5  2DD0               	goto	u2765
  4022                           	line	18
  4023  05D6  0875               	movf	(___lwdiv@divisor+1),w
  4024  05D7  0277               	subwf	(___lwdiv@dividend+1),w
  4025  05D8  1D03               	skipz
  4026  05D9  2DDC               	goto	u2775
  4027  05DA  0874               	movf	(___lwdiv@divisor),w
  4028  05DB  0276               	subwf	(___lwdiv@dividend),w
  4029  05DC                     u2775:
  4030  05DC  1C03               	skipc
  4031  05DD  2DDF               	goto	u2771
  4032  05DE  2DE0               	goto	u2770
  4033  05DF                     u2771:
  4034  05DF  2DE8               	goto	l4983
  4035  05E0                     u2770:
  4036                           	line	19
  4037                           	
  4038  05E0                     l4979:	
  4039  05E0  0874               	movf	(___lwdiv@divisor),w
  4040  05E1  02F6               	subwf	(___lwdiv@dividend),f
  4041  05E2  0875               	movf	(___lwdiv@divisor+1),w
  4042  05E3  1C03               	skipc
  4043  05E4  03F7               	decf	(___lwdiv@dividend+1),f
  4044  05E5  02F7               	subwf	(___lwdiv@dividend+1),f
  4045                           	line	20
  4046                           	
  4047  05E6                     l4981:	
  4048  05E6  1420               	bsf	(___lwdiv@quotient)+(0/8),(0)&7
  4049  05E7  2DE8               	goto	l4983
  4050                           	line	21
  4051                           	
  4052  05E8                     l3316:	
  4053                           	line	22
  4054                           	
  4055  05E8                     l4983:	
  4056  05E8  3001               	movlw	01h
  4057                           	
  4058  05E9                     u2785:
  4059  05E9  1003               	clrc
  4060  05EA  0CF5               	rrf	(___lwdiv@divisor+1),f
  4061  05EB  0CF4               	rrf	(___lwdiv@divisor),f
  4062  05EC  3EFF               	addlw	-1
  4063  05ED  1D03               	skipz
  4064  05EE  2DE9               	goto	u2785
  4065                           	line	23
  4066                           	
  4067  05EF                     l4985:	
  4068  05EF  3001               	movlw	low(01h)
  4069  05F0  02A2               	subwf	(___lwdiv@counter),f
  4070  05F1  1D03               	btfss	status,2
  4071  05F2  2DF4               	goto	u2791
  4072  05F3  2DF5               	goto	u2790
  4073  05F4                     u2791:
  4074  05F4  2DCF               	goto	l4977
  4075  05F5                     u2790:
  4076  05F5  2DF7               	goto	l4987
  4077                           	
  4078  05F6                     l3317:	
  4079  05F6  2DF7               	goto	l4987
  4080                           	line	24
  4081                           	
  4082  05F7                     l3311:	
  4083                           	line	25
  4084                           	
  4085  05F7                     l4987:	
  4086  05F7  0821               	movf	(___lwdiv@quotient+1),w
  4087  05F8  01F5               	clrf	(?___lwdiv+1)
  4088  05F9  07F5               	addwf	(?___lwdiv+1)
  4089  05FA  0820               	movf	(___lwdiv@quotient),w
  4090  05FB  01F4               	clrf	(?___lwdiv)
  4091  05FC  07F4               	addwf	(?___lwdiv)
  4092                           
  4093  05FD  2DFE               	goto	l3318
  4094                           	
  4095  05FE                     l4989:	
  4096                           	line	26
  4097                           	
  4098  05FE                     l3318:	
  4099  05FE  0008               	return
  4100                           	opt stack 0
  4101                           GLOBAL	__end_of___lwdiv
  4102  05FF                     	__end_of___lwdiv:
  4103 ;; =============== function ___lwdiv ends ============
  4104                           
  4105                           	signat	___lwdiv,8314
  4106                           	global	_onewire_init
  4107                           psect	text418,local,class=CODE,delta=2
  4108                           global __ptext418
  4109  06DA                     __ptext418:
  4110                           
  4111 ;; *************** function _onewire_init *****************
  4112 ;; Defined at:
  4113 ;;		line 173 in file "CLDTP1.c"
  4114 ;; Parameters:    Size  Location     Type
  4115 ;;		None
  4116 ;; Auto vars:     Size  Location     Type
  4117 ;;		None
  4118 ;; Return value:  Size  Location     Type
  4119 ;;		None               void
  4120 ;; Registers used:
  4121 ;;		wreg, status,2
  4122 ;; Tracked objects:
  4123 ;;		On entry : 0/0
  4124 ;;		On exit  : 0/0
  4125 ;;		Unchanged: 0/0
  4126 ;; Data sizes:     COMMON   BANK0   BANK1   BANK2
  4127 ;;      Params:         0       0       0       0
  4128 ;;      Locals:         0       0       0       0
  4129 ;;      Temps:          0       0       0       0
  4130 ;;      Totals:         0       0       0       0
  4131 ;;Total ram usage:        0 bytes
  4132 ;; Hardware stack levels used:    1
  4133 ;; Hardware stack levels required when called:    1
  4134 ;; This function calls:
  4135 ;;		Nothing
  4136 ;; This function is called by:
  4137 ;;		_main
  4138 ;; This function uses a non-reentrant model
  4139 ;;
  4140                           psect	text418
  4141                           	file	"CLDTP1.c"
  4142                           	line	173
  4143                           	global	__size_of_onewire_init
  4144  000E                     	__size_of_onewire_init	equ	__end_of_onewire_init-_onewire_init
  4145                           	
  4146  06DA                     _onewire_init:	
  4147                           	opt	stack 6
  4148                           ; Regs used in _onewire_init: [wreg+status,2]
  4149                           	line	174
  4150                           	
  4151  06DA                     l4959:	
  4152                           ;CLDTP1.c: 174: TRISB7 = 1;
  4153  06DA  1683               	bsf	status, 5	;RP0=1, select bank1
  4154  06DB  1303               	bcf	status, 6	;RP1=0, select bank1
  4155  06DC  1786               	bsf	(1079/8)^080h,(1079)&7
  4156                           	line	175
  4157                           ;CLDTP1.c: 175: IDTimeout = 0;
  4158  06DD  10F9               	bcf	(_IDTimeout/8),(_IDTimeout)&7
  4159                           	line	176
  4160                           ;CLDTP1.c: 176: BreakOnTimeout = 0;
  4161  06DE  1079               	bcf	(_BreakOnTimeout/8),(_BreakOnTimeout)&7
  4162                           	line	177
  4163                           	
  4164  06DF                     l4961:	
  4165                           ;CLDTP1.c: 177: TimeoutMultiplier = 1;
  4166  06DF  3001               	movlw	low(01h)
  4167  06E0  1283               	bcf	status, 5	;RP0=0, select bank0
  4168  06E1  1303               	bcf	status, 6	;RP1=0, select bank0
  4169  06E2  00DA               	movwf	(_TimeoutMultiplier)
  4170  06E3  3000               	movlw	high(01h)
  4171  06E4  00DB               	movwf	((_TimeoutMultiplier))+1
  4172                           	line	178
  4173                           	
  4174  06E5                     l4963:	
  4175                           ;CLDTP1.c: 178: TimeoutOverflowCounter = 0;
  4176  06E5  01D8               	clrf	(_TimeoutOverflowCounter)
  4177  06E6  01D9               	clrf	(_TimeoutOverflowCounter+1)
  4178                           	line	179
  4179                           	
  4180  06E7                     l2446:	
  4181  06E7  0008               	return
  4182                           	opt stack 0
  4183                           GLOBAL	__end_of_onewire_init
  4184  06E8                     	__end_of_onewire_init:
  4185 ;; =============== function _onewire_init ends ============
  4186                           
  4187                           	signat	_onewire_init,88
  4188                           	global	_isr
  4189                           psect	text419,local,class=CODE,delta=2
  4190                           global __ptext419
  4191  0696                     __ptext419:
  4192                           
  4193 ;; *************** function _isr *****************
  4194 ;; Defined at:
  4195 ;;		line 21 in file "CLCP001.c"
  4196 ;; Parameters:    Size  Location     Type
  4197 ;;		None
  4198 ;; Auto vars:     Size  Location     Type
  4199 ;;		None
  4200 ;; Return value:  Size  Location     Type
  4201 ;;		None               void
  4202 ;; Registers used:
  4203 ;;		wreg, status,2
  4204 ;; Tracked objects:
  4205 ;;		On entry : 0/0
  4206 ;;		On exit  : 0/0
  4207 ;;		Unchanged: 0/0
  4208 ;; Data sizes:     COMMON   BANK0   BANK1   BANK2
  4209 ;;      Params:         0       0       0       0
  4210 ;;      Locals:         0       0       0       0
  4211 ;;      Temps:          4       0       0       0
  4212 ;;      Totals:         4       0       0       0
  4213 ;;Total ram usage:        4 bytes
  4214 ;; Hardware stack levels used:    1
  4215 ;; This function calls:
  4216 ;;		Nothing
  4217 ;; This function is called by:
  4218 ;;		Interrupt level 1
  4219 ;; This function uses a non-reentrant model
  4220 ;;
  4221                           psect	text419
  4222                           	file	"CLCP001.c"
  4223                           	line	21
  4224                           	global	__size_of_isr
  4225  0028                     	__size_of_isr	equ	__end_of_isr-_isr
  4226                           	
  4227  0696                     _isr:	
  4228                           	opt	stack 4
  4229                           ; Regs used in _isr: [wreg+status,2]
  4230                           psect	intentry,class=CODE,delta=2
  4231                           global __pintentry
  4232  0004                     __pintentry:
  4233                           global interrupt_function
  4234  0004                     interrupt_function:
  4235                           	global saved_w
  4236  007E                     	saved_w	set	btemp+0
  4237  0004  00FE               	movwf	saved_w
  4238  0005  0E03               	swapf	status,w
  4239  0006  00F0               	movwf	(??_isr+0)
  4240  0007  0804               	movf	fsr0,w
  4241  0008  00F1               	movwf	(??_isr+1)
  4242  0009  080A               	movf	pclath,w
  4243  000A  00F2               	movwf	(??_isr+2)
  4244  000B  1283               	bcf	status, 5	;RP0=0, select bank0
  4245  000C  1303               	bcf	status, 6	;RP1=0, select bank0
  4246  000D  087F               	movf	btemp+1,w
  4247  000E  00F3               	movwf	(??_isr+3)
  4248  000F  118A  2E96         	ljmp	_isr
  4249                           psect	text419
  4250                           	line	22
  4251                           	
  4252  0696                     i1l4947:	
  4253                           ;CLCP001.c: 22: if(TMR1IF =1)
  4254  0696  140C               	bsf	(96/8),(96)&7
  4255  0697  1C0C               	btfss	(96/8),(96)&7
  4256  0698  2E9A               	goto	u271_21
  4257  0699  2E9B               	goto	u271_20
  4258  069A                     u271_21:
  4259  069A  2EB3               	goto	i1l730
  4260  069B                     u271_20:
  4261                           	line	24
  4262                           	
  4263  069B                     i1l4949:	
  4264                           ;CLCP001.c: 23: {
  4265                           ;CLCP001.c: 24: TimeoutOverflowCounter++;
  4266  069B  3001               	movlw	low(01h)
  4267  069C  07D8               	addwf	(_TimeoutOverflowCounter),f
  4268  069D  1803               	skipnc
  4269  069E  0AD9               	incf	(_TimeoutOverflowCounter+1),f
  4270  069F  3000               	movlw	high(01h)
  4271  06A0  07D9               	addwf	(_TimeoutOverflowCounter+1),f
  4272                           	line	25
  4273                           	
  4274  06A1                     i1l4951:	
  4275                           ;CLCP001.c: 25: TMR1H = 0x0;
  4276  06A1  018F               	clrf	(15)	;volatile
  4277                           	line	26
  4278                           	
  4279  06A2                     i1l4953:	
  4280                           ;CLCP001.c: 26: TMR1L = 0x0;
  4281  06A2  018E               	clrf	(14)	;volatile
  4282                           	line	27
  4283                           	
  4284  06A3                     i1l4955:	
  4285                           ;CLCP001.c: 27: TMR1IF = 0;
  4286  06A3  100C               	bcf	(96/8),(96)&7
  4287                           	line	29
  4288                           ;CLCP001.c: 29: if (TimeoutOverflowCounter >= TimeoutMultiplier)
  4289  06A4  085B               	movf	(_TimeoutMultiplier+1),w
  4290  06A5  0259               	subwf	(_TimeoutOverflowCounter+1),w
  4291  06A6  1D03               	skipz
  4292  06A7  2EAA               	goto	u272_25
  4293  06A8  085A               	movf	(_TimeoutMultiplier),w
  4294  06A9  0258               	subwf	(_TimeoutOverflowCounter),w
  4295  06AA                     u272_25:
  4296  06AA  1C03               	skipc
  4297  06AB  2EAD               	goto	u272_21
  4298  06AC  2EAE               	goto	u272_20
  4299  06AD                     u272_21:
  4300  06AD  2EB0               	goto	i1l728
  4301  06AE                     u272_20:
  4302                           	line	31
  4303                           	
  4304  06AE                     i1l4957:	
  4305                           ;CLCP001.c: 30: {
  4306                           ;CLCP001.c: 31: IDTimeout = 1;
  4307  06AE  14F9               	bsf	(_IDTimeout/8),(_IDTimeout)&7
  4308                           	line	32
  4309                           ;CLCP001.c: 32: }
  4310  06AF  2EB3               	goto	i1l730
  4311                           	line	33
  4312                           	
  4313  06B0                     i1l728:	
  4314                           	line	35
  4315                           ;CLCP001.c: 33: else
  4316                           ;CLCP001.c: 34: {
  4317                           ;CLCP001.c: 35: TMR1ON = 1;
  4318  06B0  1410               	bsf	(128/8),(128)&7
  4319  06B1  2EB3               	goto	i1l730
  4320                           	line	36
  4321                           	
  4322  06B2                     i1l729:	
  4323  06B2  2EB3               	goto	i1l730
  4324                           	line	37
  4325                           	
  4326  06B3                     i1l727:	
  4327                           	line	38
  4328                           	
  4329  06B3                     i1l730:	
  4330  06B3  0873               	movf	(??_isr+3),w
  4331  06B4  00FF               	movwf	btemp+1
  4332  06B5  0872               	movf	(??_isr+2),w
  4333  06B6  008A               	movwf	pclath
  4334  06B7  0871               	movf	(??_isr+1),w
  4335  06B8  0084               	movwf	fsr0
  4336  06B9  0E70               	swapf	(??_isr+0)^0FFFFFF80h,w
  4337  06BA  0083               	movwf	status
  4338  06BB  0EFE               	swapf	saved_w,f
  4339  06BC  0E7E               	swapf	saved_w,w
  4340  06BD  0009               	retfie
  4341                           	opt stack 0
  4342                           GLOBAL	__end_of_isr
  4343  06BE                     	__end_of_isr:
  4344 ;; =============== function _isr ends ============
  4345                           
  4346                           	signat	_isr,88
  4347                           psect	text420,local,class=CODE,delta=2
  4348                           global __ptext420
  4349  0000                     __ptext420:
  4350                           	global	btemp
  4351  007E                     	btemp set 07Eh
  4352                           
  4353                           	DABS	1,126,2	;btemp
  4354                           	global	wtemp0
  4355  007E                     	wtemp0 set btemp


HI-TECH Software PICC Macro Assembler V9.83 build 10920 
Symbol Table                                                                                   Sat Aug 20 16:26:11 2016

                                      _RD 0C60                                        _WR 0C61  
                             main@Humid1H 0040                               main@Humid2H 0044  
                             main@Humid3H 0048                               main@Humid1L 003F  
                             main@Humid4H 004C                               main@Humid2L 0043  
                             main@Humid3L 0047                               main@Humid4L 004B  
                                      fsr 0004                                       l740 0635  
                                     l733 065F                                       l741 064B  
                                     l734 0695                                       l735 0695  
                                     l744 046D                                       l760 00BD  
                                     l752 0040                                       l745 04AF  
                                     l761 00F1                                       l753 0053  
                                     l746 049B                                       l738 0612  
                                     l754 03C5                                       l770 01C6  
                                     l762 00F2                                       l747 04D1  
                                     l739 064B                                       l755 03AE  
                                     l771 01FA                                       l763 0126  
                                     l748 04D5                                       l772 01FB  
                                     l764 0127                                       l756 0088  
                                     l749 04D5                                       l773 022F  
                                     l765 015B                                       l757 0089  
                                     l758 03AF                                       l774 0230  
                                     l766 015C                                       l775 03C6  
                                     l767 0190                                       l759 00BC  
                                     l776 03C7                                       l768 0191  
                                     l777 03C7                                       l769 01C5  
                                     _GIE 005F                                       _isr 0696  
                                     fsr0 0004                                       indf 0000  
                      onewire_write@count 0021                              main@Humidity 0035  
 IdentifyConnectedControllers@NextAddress 002A                                      l2410 052C  
                                    l2402 04ED                                      l2403 0542  
                                    l2411 0524                                      l2412 0524  
                                    l2404 04FC                                      l2420 03E6  
                                    l2413 052B                                      l2405 04FE  
                                    l2421 03E6                                      l2414 0546  
                                    l2406 050F                                      l2430 040F  
                                    l3311 05F7                                      l2407 0510  
                                    l2431 040F                                      l2423 03EF  
                                    l3312 05C9                                      l2408 0510  
                                    l2440 0454                                      l2432 0416  
                                    l2424 03EF                                      l3313 05BD  
                                    l5001 0483                                      l2409 0515  
                                    l2433 0424                                      l2425 03F6  
                                    l2417 03E2                                      l3314 05CE  
                                    l2418 044D                                      l2434 0424  
                                    l2426 0454                                      l3315 05CF  
                                    l5011 04CF                                      l5003 049B  
                                    l2443 06D9                                      l2427 0404  
                                    l2419 03E5                                      l3316 05E8  
                                    l2436 042F                                      l2428 0404  
                                    l3317 05F6                                      l5013 04D0  
                                    l5005 04A1                                      l2437 042F  
                                    l2446 06E7                                      l3318 05FE  
                                    l2438 0436                                      l5015 04D1  
                                    l5007 04AF                                      l2439 044C  
                                    l5017 04D4                                      l5009 04B7  
                                    l2395 055D                                      l2396 05AA  
                                    l2397 056C                                      l2398 056D  
                                    l2399 05AE                                      l5401 0509  
                                    l5403 0515                                      l5411 0542  
                                    l5413 0546                                      l5405 0523  
                                    l5421 06D3                                      l5501 0687  
                                    l5407 052C                                      l5415 06BF  
                                    l5431 03D4                                      l5423 03CC  
                                    l5511 0619                                      l5503 05FF  
                                    l5361 055C                                      l5409 0534  
                                    l5417 06C3                                      l5433 03D6  
                                    l5441 03E2                                      l5425 03CD  
                                    l5513 0623                                      l5505 0603  
                                    l5601 0195                                      l5521 0019  
                                    l5371 0575                                      l5363 055D  
                                    l5419 06C8                                      l5451 03FE  
                                    l5443 03EA                                      l5435 03D8  
                                    l5427 03CF                                      l5515 0635  
                                    l5507 0611                                      l5611 01D3  
                                    l5603 019E                                      l5531 0027  
                                    l5523 001D                                      l5373 0586  
                                    l5365 0564                                      l5381 05AA  
                                    l5357 054A                                      l5461 041E  
                                    l5453 040A                                      l5445 03F3  
                                    l5437 03DC                                      l5429 03D0  
                                    l5517 063D                                      l5509 0612  
                                    l5621 0213                                      l5613 01DE  
                                    l5605 01A9                                      l5541 0044  
                                    l5533 002A                                      l5525 001E  
                                    l5375 058D                                      l5367 0568  
                                    l5359 054E                                      l5391 04ED  
                                    l5383 04D6                                      l5471 043E  
                                    l5463 042A                                      l5455 0413  
                                    l5447 03F5                                      l5439 03DE  
                                    l5631 026C                                      l5623 0225  
                                    l5615 01F0                                      l5607 01BB  
                                    l5551 0065                                      l5543 0052  
                                    l5535 0039                                      l5527 0021  
                                    l5519 0013                                      l5377 0596  
                                    l5369 0570                                      l5393 04F2  
                                    l5385 04DA                                      l5473 0444  
                                    l5465 0433                                      l5457 0415  
                                    l5449 03F6                                      l5481 064C  
                                    l5641 0292                                      l5633 0270  
                                    l5625 0230                                      l5617 01FF  
                                    l5609 01CA                                      l5561 008D  
                                    l5553 0069                                      l5545 0053  
                                    l5537 003C                                      l5529 0024  
                                    l5379 059C                                      l5395 04F8  
                                    l5387 04DE                                      l5475 0448  
                                    l5467 0435                                      l5459 0416  
                                    l5491 066C                                      l5483 0650  
                                    l5651 02C9                                      l5643 029D  
                                    l5635 0274                                      l5627 0239  
                                    l5619 0208                                      l5571 00CA  
                                    l5563 0096                                      l5555 006D  
                                    l5547 005A                                      l5539 0040  
                                    l5397 04FE                                      l5389 04EC  
                                    l5477 044B                                      l5469 0436  
                                    l5493 066D                                      l5485 065E  
                                    l5661 0300                                      l5653 02D4  
                                    l5645 02A8                                      l5637 027C  
                                    l5629 0260                                      l5581 010A  
                                    l5573 00D5                                      l5565 00A0  
                                    l5557 0076                                      l5549 0064  
                                    l5399 0505                                      l5479 044D  
                                    l5495 0673                                      l5487 065F  
                                    l5671 0337                                      l5663 030B  
                                    l5655 02DF                                      l5647 02B3  
                                    l5639 0287                                      l5591 0151  
                                    l5583 011C                                      l5575 00E7  
                                    l5567 00B2                                      l5559 007E  
                                    l4961 06DF                                      l5497 0680  
                                    l5489 0666                                      l5681 036E  
                                    l5673 0342                                      l5665 0316  
                                    l5657 02EA                                      l5649 02BE  
                                    l5593 0160                                      l5585 012B  
                                    l5577 00F6                                      l5569 00C1  
                                    l4963 06E5                                      l4971 05BD  
                                    l5499 0681                                      l5683 037D  
                                    l5675 034D                                      l5667 0321  
                                    l5659 02F5                                      l5595 0169  
                                    l5587 0134                                      l5579 00FF  
                                    l5691 03AF                                      ?_isr 0070  
                                    l4981 05E6                                      l4973 05C4  
                                    l4965 05AF                                      l5693 03B7  
                                    l5685 0388                                      l5677 0358  
                                    l5669 032C                                      l5597 0174  
                                    l5589 013F                                      l4959 06DA  
                                    l4983 05E8                                      l4975 05C9  
                                    l4967 05B3                                      l4991 0458  
                                    l5687 0393                                      l5679 0363  
                                    l5599 0186                                      l4985 05EF  
                                    l4977 05CF                                      l4969 05B9  
                                    l4993 045E                                      l5689 039E  
                                    l4979 05E0                                      l4987 05F7  
                                    l4995 046C                                      l4989 05FE  
                                    l4997 046D                                      l4999 047D  
                                    u3300 04EB                                      u3301 04EA  
                                    u3310 04F8                                      u3311 04F7  
                                    u4007 0420                                      u3320 0509  
                                    u3400 03F3                                      u3305 04E7  
                                    u4017 06C5                                      u3401 03F2  
                                    u3250 055B                                      u3330 0514  
                                    u3410 040A                                      u3251 055A  
                                    u3331 0513                                      u4027 06D0  
                                    u3411 0409                                      u3260 0568  
                                    u3340 0522                                      u3420 040E  
                                    u3500 0694                                      u3341 0521  
                                    u4037 04EF                                      u3421 040D  
                                    u3501 0693                                      u3270 057E  
                                    u3350 052A                                      u3430 0413  
                                    u3510 0610                                      u3271 057A  
                                    u4047 0572                                      u3255 0557  
                                    u3351 0529                                      u3431 0412  
                                    u3511 060F                                      _PIE1 008C  
                                    u2800 046B                                      u3360 0541  
                                    u3440 042A                                      u3520 0623  
                                    u3600 012B                                      u2801 046A  
                                    u4057 0583                                      u3361 0540  
                                    u3345 051E                                      u3441 0429  
                                    u3505 0690                                      u3521 0622  
                                    u3601 012A                                      u2730 05B9  
                                    u2810 047D                                      u3290 05A9  
                                    u3450 042E                                      u3370 03D4  
                                    u3530 064A                                      u3610 0160  
                                    u2731 05B8                                      u2811 047C  
                                    u3291 05A8                                      u4067 058B  
                                    u3451 042D                                      u3371 03D3  
                                    u3531 0649                                      u3515 060C  
                                    u3611 015F                                      u2820 04AE  
                                    u3284 0581                                      u3460 0433  
                                    u3380 03EA                                      u3620 0195  
                                    u3540 0051                                      u2821 04AD  
                                    u2805 0467                                      u4077 05AC  
                                    u3365 053D                                      u3461 0432  
                                    u3381 03E9                                      u3621 0194  
                                    u3541 0050                                      u2750 05CD  
                                    u2830 04B7                                      u3470 0444  
                                    u3390 03EE                                      u3630 01CA  
                                    u3550 0064                                      u2751 05CC  
                                    u2831 04B6                                      u3295 05A5  
                                    u3471 0443                                      u3391 03ED  
                                    u3535 0646                                      u3631 01C9  
                                    u3551 0063                                      u3480 0453  
                                    u3640 01FF                                      u3560 006D  
                                    u2745 05BE                                      u2825 04AA  
                                    u3481 0452                                      u3641 01FE  
                                    u3561 006C                                      u3545 004D  
                                    u2770 05E0                                      u3490 065D  
                                    u3650 03C4                                      u3570 008D  
                                    u2771 05DF                                      u3491 065C  
                                    u3651 03C3                                      u3707 00C5  
                                    u3571 008C                                      u3580 00C1  
                                    u2765 05D0                                      u3717 00E2  
                                    u3581 00C0                                      u2790 05F5  
                                    u3590 00F6                                      u2791 05F4  
                                    u2775 05DC                                      u3495 0659  
                                    u3655 03C0                                      u3807 01CE  
                                    u3727 00FA                                      u3591 00F5  
                                    u2785 05E9                                      u3817 01EB  
                                    u3737 0117                                      u3907 02F0  
                                    u3827 0203                                      u3747 012F  
                                    u3667 0032                                      _RCIF 0065  
                                    u3917 0306                                      u3837 0220  
                                    u3757 014C                                      u3677 0071  
                                    u3927 031C                                      u3847 0234  
                                    u3767 0164                                      u3687 0091  
                                    u3937 0332                                      u3857 0282  
                                    u3777 0181                                      u3697 00AD  
                                    u3947 0348                                      u3867 0298  
                                    u3787 0199                                      u3957 035E  
                                    u3877 02AE                                      u3797 01B6  
                                    u3967 0376                                      u3887 02C4  
                                    u3977 038E                                      u3897 02DA  
                                    u3987 03A6                                      u3997 0400  
                                    _WREN 0C62                                      _TXIF 0064  
                                    _main 0013                                      btemp 007E  
                                    start 0011                                     ??_isr 0070  
                                   ?_main 0070                                     _EEADR 010D  
                                   _CARRY 0018                                     _ANSEL 011E  
                                   _T1CON 0010                           __end_of___lwdiv 05FF  
                                   i1l730 06B3                                     i1l727 06B3  
                                   i1l728 06B0                                     i1l729 06B2  
                                   _RCREG 001A                                     _RCSTA 0018  
                                   _TMR1H 000F                                     _TMR1L 000E  
                                   _SPBRG 0099                                     _PORTA 0005  
                                   _PORTB 0006                    _TimeoutOverflowCounter 0058  
                                   _TRISA 0085                                     _TRISB 0086  
                                   _TXREG 0019                                     _TXSTA 0098  
                                   main@i 0051                            __pbitbssCOMMON 03C8  
                      _onewire_sendpacket 06BE                                     pclath 000A  
                                   status 0003                                     wtemp0 007E  
                          _BreakOnTimeout 03C8          __end_of_CalculateAverageHumidity 04D6  
                     ?_onewire_sendpacket 0024                              __end_of_main 03C9  
                                  ??_main 0031                      ??_onewire_sendpacket 0076  
CalculateAverageHumidity@HumidSensorCount 002C                                    _EEDATA 010C  
                                  _EECON1 018C                                    _EECON2 018D  
                                  _ANSELH 011F                                    i1l4951 06A1  
                                  i1l4953 06A2                                    i1l4955 06A3  
                                  i1l4947 0696                                    i1l4957 06AE  
                                  i1l4949 069B                                    _INTCON 000B  
                                  u271_20 069B                                    u271_21 069A  
                                  u272_20 06AE                                    u272_21 06AD  
                                  u272_25 06AA                                    _OSCCON 008F  
                                  _TMR1IF 0060                                    _TMR1ON 0080  
                                  _TRISB5 0435                                    _TRISB7 0437  
    __end_of_IdentifyConnectedControllers 0696     __size_of_IdentifyConnectedControllers 004A  
            _IdentifyConnectedControllers 064C                                 ??___lwdiv 0078  
                                  saved_w 007E             IdentifyConnectedControllers@i 002B  
                 __size_of_onewire_listen 008C                     __end_of_onewire_write 05AF  
                          __pcstackCOMMON 0070                   onewire_listen@RxAddress 0026  
           ?_IdentifyConnectedControllers 0070                  _CalculateAverageHumidity 0455  
                 onewire_listen@TxAddress 0024                                __pbssBANK0 0054  
                      InitialiseSensors@i 002B                                __pmaintext 0013  
                              __pintentry 0004                                   _CM1CON0 0119  
                                 _CM2CON0 011A                                   _BAUDCTL 009B  
                       main@SensorAddress 0053                         onewire_read@count 0021  
                           ?_onewire_init 0070                             ?_onewire_read 0070  
                                 ___lwdiv 05AF            ??_IdentifyConnectedControllers 0078  
                        main@controllerId 0034                              __size_of_isr 0028  
                          _onewire_listen 03C9                      end_of_initialization 06EF  
                          ??_onewire_init 0074                            ??_onewire_read 0074  
                               _IDTimeout 03C9                       onewire_read@databit 0020  
             __size_of_onewire_sendpacket 001C                    __end_of_onewire_listen 0455  
                              main@HumidH 004E                                main@HumidL 004D  
                              main@Temp1H 003E                                main@Temp2H 0042  
                              main@Temp3H 0046                                main@Temp1L 003D  
                              main@Temp4H 004A                                main@Temp2L 0041  
                              main@Temp3L 0045                                main@Temp4L 0049  
                       onewire_write@data 0020                ??_CalculateAverageHumidity 0025  
                     start_initialization 06E8                               __end_of_isr 06BE  
                         ?_onewire_listen 0070                     onewire_listen@Payload 0027  
                   onewire_listen@address 0025            onewire_listen@message_recieved 0028  
          InitialiseSensors@SensorAddress 002A                      __end_of_onewire_init 06E8  
                    __end_of_onewire_read 0547                    __size_of_onewire_write 0068  
                           __pcstackBANK0 0020                                 __pnvBANK0 005A  
                        ___lwdiv@dividend 0076                         _InitialiseSensors 05FF  
                               __ptext410 05FF                                 __ptext411 064C  
                               __ptext420 0000                                 __ptext412 03C9  
                               __ptext413 06BE                                 __ptext414 04D6  
                               __ptext415 0547                                 __ptext416 0455  
                               __ptext417 05AF                                 __ptext418 06DA  
                               __ptext419 0696                 onewire_sendpacket@payload 0025  
                      ?_InitialiseSensors 0070                                  ?___lwdiv 0074  
                        onewire_read@data 0023                       ??_InitialiseSensors 0078  
   CalculateAverageHumidity@HumidityArray 002E                          ___lwdiv@quotient 0020  
                       interrupt_function 0004                             _onewire_write 0547  
               __end_of_InitialiseSensors 064C               onewire_sendpacket@RxAddress 0077  
             onewire_sendpacket@TxAddress 0024                                 main@Humid 004F  
                        onewire_write@lsb 0023                            ?_onewire_write 0070  
                   __size_of_onewire_init 000E                     __size_of_onewire_read 0071  
                        __size_of___lwdiv 0050                __end_of_onewire_sendpacket 06DA  
                        ??_onewire_listen 0076                              _SensorsArray 0054  
                         ___lwdiv@divisor 0074                           ___lwdiv@counter 0022  
                           __size_of_main 03B6                __size_of_InitialiseSensors 004D  
                            _onewire_init 06DA                              _onewire_read 04D6  
       __size_of_CalculateAverageHumidity 0081                 ?_CalculateAverageHumidity 0023  
                                intlevel1 0000                           ??_onewire_write 0074  
               CalculateAverageHumidity@i 002F                         _TimeoutMultiplier 005A  
     CalculateAverageHumidity@HumiditySum 002A  
