

HI-TECH Software PIC LITE Macro Assembler V9.83 build 10920 
                                                                                               Thu Apr 21 08:13:09 2016

HI-TECH Software Omniscient Code Generator (Lite mode) build 10920
     1  0000                     opt subtitle "HI-TECH Software Omniscient Code Generator (Lite mode) build 10920"
     2                           
     3                           opt pagewidth 120
     4                           
     5                           	opt lm
     6                           
     7                           	processor	16F690
     8                           clrc	macro
     9                           	bcf	3,0
    10  0000                     	endm
    11                           clrz	macro
    12                           	bcf	3,2
    13  0000                     	endm
    14                           setc	macro
    15                           	bsf	3,0
    16  0000                     	endm
    17                           setz	macro
    18                           	bsf	3,2
    19  0000                     	endm
    20                           skipc	macro
    21                           	btfss	3,0
    22  0000                     	endm
    23                           skipz	macro
    24                           	btfss	3,2
    25  0000                     	endm
    26                           skipnc	macro
    27                           	btfsc	3,0
    28  0000                     	endm
    29                           skipnz	macro
    30                           	btfsc	3,2
    31  0000                     	endm
    32  0000                     indf	equ	0
    33  0000                     indf0	equ	0
    34  0002                     pc	equ	2
    35  0002                     pcl	equ	2
    36  0003                     status	equ	3
    37  0004                     fsr	equ	4
    38  0004                     fsr0	equ	4
    39  0001                     c	equ	1
    40  0000                     z	equ	0
    41  000A                     pclath	equ	10
    42                           # 29 "C:/Users/Dave/MPLABXProjects/IO Test.X/IOTest.c"
    43                           	psect config,class=CONFIG,delta=2 ;#
    44                           # 29 "C:/Users/Dave/MPLABXProjects/IO Test.X/IOTest.c"
    45  2007  FFF7               	dw 0xFFF7 ;#
    46                           	FNCALL	_main,_onewire_init
    47                           	FNCALL	_main,_onewire_listen
    48                           	FNCALL	_main,_onewire_sendpacket
    49                           	FNCALL	_main,_ReturnTemperature
    50                           	FNCALL	_main,_ReturnHumidity
    51                           	FNCALL	_main,_AutoDetectSensors
    52                           	FNCALL	_AutoDetectSensors,_IdentifySensor
    53                           	FNCALL	_AutoDetectSensors,_onewire_sendpacket
    54                           	FNCALL	_ReturnHumidity,_onewire_sendpacket
    55                           	FNCALL	_ReturnHumidity,_GetHumidity
    56                           	FNCALL	_ReturnTemperature,_onewire_sendpacket
    57                           	FNCALL	_ReturnTemperature,_GetTemperature
    58                           	FNCALL	_ReturnTemperature,_ds_gettemperature
    59                           	FNCALL	_IdentifySensor,_GetTemperature
    60                           	FNCALL	_IdentifySensor,_ds_gettemperature
    61                           	FNCALL	_GetHumidity,_GetData
    62                           	FNCALL	_GetTemperature,_GetData
    63                           	FNCALL	_onewire_listen,_onewire_read
    64                           	FNCALL	_onewire_sendpacket,_onewire_write
    65                           	FNCALL	_ds_gettemperature,_ds_reset
    66                           	FNCALL	_ds_gettemperature,_ds_write
    67                           	FNCALL	_ds_gettemperature,_ds_read
    68                           	FNCALL	_ds_gettemperature,___wmul
    69                           	FNCALL	_ds_gettemperature,___lwdiv
    70                           	FNCALL	_GetData,_ReadBit
    71                           	FNROOT	_main
    72                           	FNCALL	intlevel1,_isr
    73                           	global	intlevel1
    74                           	FNROOT	intlevel1
    75                           	global	_CheckSum
    76                           	global	_DataBitMap
    77                           	global	_HumidH
    78                           	global	_HumidL
    79                           	global	_Sensor1
    80                           	global	_Sensor2
    81                           	global	_Sensor3
    82                           	global	_Sensor4
    83                           	global	_TempH
    84                           	global	_TempL
    85                           	global	_DHTTimeOut
    86                           	global	_DHT_Error
    87                           	global	_DS18b20TimeOut
    88                           	global	_Result
    89                           	global	_INTCON
    90                           psect	text760,local,class=CODE,delta=2
    91                           global __ptext760
    92  0000                     __ptext760:
    93  000B                     _INTCON	set	11
    94                           	global	_PORTB
    95  0006                     _PORTB	set	6
    96                           	global	_PORTC
    97  0007                     _PORTC	set	7
    98                           	global	_RCREG
    99  001A                     _RCREG	set	26
   100                           	global	_RCSTA
   101  0018                     _RCSTA	set	24
   102                           	global	_T1CON
   103  0010                     _T1CON	set	16
   104                           	global	_TMR1H
   105  000F                     _TMR1H	set	15
   106                           	global	_TMR1L
   107  000E                     _TMR1L	set	14
   108                           	global	_TXREG
   109  0019                     _TXREG	set	25
   110                           	global	_CARRY
   111  0018                     _CARRY	set	24
   112                           	global	_GIE
   113  005F                     _GIE	set	95
   114                           	global	_RCIF
   115  0065                     _RCIF	set	101
   116                           	global	_TMR1IF
   117  0060                     _TMR1IF	set	96
   118                           	global	_TMR1ON
   119  0080                     _TMR1ON	set	128
   120                           	global	_TXIF
   121  0064                     _TXIF	set	100
   122                           	global	_BAUDCTL
   123  009B                     _BAUDCTL	set	155
   124                           	global	_OSCCON
   125  008F                     _OSCCON	set	143
   126                           	global	_PIE1
   127  008C                     _PIE1	set	140
   128                           	global	_SPBRG
   129  0099                     _SPBRG	set	153
   130                           	global	_TRISB
   131  0086                     _TRISB	set	134
   132                           	global	_TRISC
   133  0087                     _TRISC	set	135
   134                           	global	_TXSTA
   135  0098                     _TXSTA	set	152
   136                           	global	_TRISB5
   137  0435                     _TRISB5	set	1077
   138                           	global	_TRISB7
   139  0437                     _TRISB7	set	1079
   140                           	global	_ANSEL
   141  011E                     _ANSEL	set	286
   142                           	global	_ANSELH
   143  011F                     _ANSELH	set	287
   144                           	global	_EEADR
   145  010D                     _EEADR	set	269
   146                           	global	_EEDATA
   147  010C                     _EEDATA	set	268
   148                           	global	_EECON1
   149  018C                     _EECON1	set	396
   150                           	global	_EECON2
   151  018D                     _EECON2	set	397
   152                           	global	_RD
   153  0C60                     _RD	set	3168
   154                           	global	_WR
   155  0C61                     _WR	set	3169
   156                           	global	_WREN
   157  0C62                     _WREN	set	3170
   158                           	file	"C:\Users\Dave\AppData\Local\Temp\s6rs."
   159                           	line	#
   160                           psect cinit,class=CODE,delta=2
   161                           global start_initialization
   162  0DAA                     start_initialization:
   163                           
   164                           psect	bitbssCOMMON,class=COMMON,bit,space=1
   165                           global __pbitbssCOMMON
   166  03C8                     __pbitbssCOMMON:
   167  03C8                     _DHTTimeOut:
   168  03C8                            ds      1
   169                           
   170  03C9                     _DHT_Error:
   171  03C9                            ds      1
   172                           
   173  03CA                     _DS18b20TimeOut:
   174  03CA                            ds      1
   175                           
   176  03CB                     _Result:
   177  03CB                            ds      1
   178                           
   179                           psect	bssBANK0,class=BANK0,space=1
   180                           global __pbssBANK0
   181  0042                     __pbssBANK0:
   182  0042                     _CheckSum:
   183  0042                            ds      1
   184                           
   185  0043                     _DataBitMap:
   186  0043                            ds      1
   187                           
   188  0044                     _HumidH:
   189  0044                            ds      1
   190                           
   191  0045                     _HumidL:
   192  0045                            ds      1
   193                           
   194  0046                     _Sensor1:
   195  0046                            ds      1
   196                           
   197  0047                     _Sensor2:
   198  0047                            ds      1
   199                           
   200  0048                     _Sensor3:
   201  0048                            ds      1
   202                           
   203  0049                     _Sensor4:
   204  0049                            ds      1
   205                           
   206  004A                     _TempH:
   207  004A                            ds      1
   208                           
   209  004B                     _TempL:
   210  004B                            ds      1
   211                           
   212                           ; Clear objects allocated to BITCOMMON
   213                           psect cinit,class=CODE,delta=2
   214  0DAA  01F9               	clrf	((__pbitbssCOMMON/8)+0)&07Fh
   215                           ; Clear objects allocated to BANK0
   216                           psect cinit,class=CODE,delta=2
   217  0DAB  01C2               	clrf	((__pbssBANK0)+0)&07Fh
   218  0DAC  01C3               	clrf	((__pbssBANK0)+1)&07Fh
   219  0DAD  01C4               	clrf	((__pbssBANK0)+2)&07Fh
   220  0DAE  01C5               	clrf	((__pbssBANK0)+3)&07Fh
   221  0DAF  01C6               	clrf	((__pbssBANK0)+4)&07Fh
   222  0DB0  01C7               	clrf	((__pbssBANK0)+5)&07Fh
   223  0DB1  01C8               	clrf	((__pbssBANK0)+6)&07Fh
   224  0DB2  01C9               	clrf	((__pbssBANK0)+7)&07Fh
   225  0DB3  01CA               	clrf	((__pbssBANK0)+8)&07Fh
   226  0DB4  01CB               	clrf	((__pbssBANK0)+9)&07Fh
   227                           psect cinit,class=CODE,delta=2
   228                           global end_of_initialization
   229                           
   230                           ;End of C runtime variable initialization code
   231                           
   232  0DB5                     end_of_initialization:
   233  0DB5  0183               clrf status
   234  0DB6  118A  2813         ljmp _main	;jump to C main() function
   235                           psect	cstackCOMMON,class=COMMON,space=1
   236                           global __pcstackCOMMON
   237  0070                     __pcstackCOMMON:
   238                           	global	?_onewire_init
   239  0070                     ?_onewire_init:	; 0 bytes @ 0x0
   240                           	global	?_ReadBit
   241  0070                     ?_ReadBit:	; 1 bit 
   242                           	global	?_GetData
   243  0070                     ?_GetData:	; 0 bytes @ 0x0
   244                           	global	?_ds_reset
   245  0070                     ?_ds_reset:	; 0 bytes @ 0x0
   246                           	global	?_ds_write
   247  0070                     ?_ds_write:	; 0 bytes @ 0x0
   248                           	global	?_isr
   249  0070                     ?_isr:	; 0 bytes @ 0x0
   250                           	global	??_isr
   251  0070                     ??_isr:	; 0 bytes @ 0x0
   252                           	global	?_AutoDetectSensors
   253  0070                     ?_AutoDetectSensors:	; 0 bytes @ 0x0
   254                           	global	?_main
   255  0070                     ?_main:	; 0 bytes @ 0x0
   256                           	global	?_onewire_write
   257  0070                     ?_onewire_write:	; 0 bytes @ 0x0
   258                           	global	?_onewire_listen
   259  0070                     ?_onewire_listen:	; 1 bytes @ 0x0
   260                           	global	?_ds_read
   261  0070                     ?_ds_read:	; 1 bytes @ 0x0
   262                           	global	?_IdentifySensor
   263  0070                     ?_IdentifySensor:	; 1 bytes @ 0x0
   264                           	global	?_onewire_read
   265  0070                     ?_onewire_read:	; 1 bytes @ 0x0
   266  0070                     	ds	4
   267                           	global	??_onewire_init
   268  0074                     ??_onewire_init:	; 0 bytes @ 0x4
   269                           	global	??_ReadBit
   270  0074                     ??_ReadBit:	; 0 bytes @ 0x4
   271                           	global	??_ds_reset
   272  0074                     ??_ds_reset:	; 0 bytes @ 0x4
   273                           	global	??_ds_write
   274  0074                     ??_ds_write:	; 0 bytes @ 0x4
   275                           	global	??_ds_read
   276  0074                     ??_ds_read:	; 0 bytes @ 0x4
   277                           	global	??_onewire_write
   278  0074                     ??_onewire_write:	; 0 bytes @ 0x4
   279                           	global	??_onewire_read
   280  0074                     ??_onewire_read:	; 0 bytes @ 0x4
   281                           	global	?___wmul
   282  0074                     ?___wmul:	; 2 bytes @ 0x4
   283                           	global	?___lwdiv
   284  0074                     ?___lwdiv:	; 2 bytes @ 0x4
   285                           	global	___wmul@multiplier
   286  0074                     ___wmul@multiplier:	; 2 bytes @ 0x4
   287                           	global	___lwdiv@divisor
   288  0074                     ___lwdiv@divisor:	; 2 bytes @ 0x4
   289  0074                     	ds	1
   290                           	global	?_GetTemperature
   291  0075                     ?_GetTemperature:	; 2 bytes @ 0x5
   292                           	global	?_GetHumidity
   293  0075                     ?_GetHumidity:	; 2 bytes @ 0x5
   294  0075                     	ds	1
   295                           	global	??_onewire_sendpacket
   296  0076                     ??_onewire_sendpacket:	; 0 bytes @ 0x6
   297                           	global	??_onewire_listen
   298  0076                     ??_onewire_listen:	; 0 bytes @ 0x6
   299                           	global	___wmul@multiplicand
   300  0076                     ___wmul@multiplicand:	; 2 bytes @ 0x6
   301                           	global	___lwdiv@dividend
   302  0076                     ___lwdiv@dividend:	; 2 bytes @ 0x6
   303  0076                     	ds	1
   304                           	global	??_GetTemperature
   305  0077                     ??_GetTemperature:	; 0 bytes @ 0x7
   306                           	global	??_GetHumidity
   307  0077                     ??_GetHumidity:	; 0 bytes @ 0x7
   308                           	global	onewire_sendpacket@RxAddress
   309  0077                     onewire_sendpacket@RxAddress:	; 1 bytes @ 0x7
   310  0077                     	ds	1
   311                           	global	??___wmul
   312  0078                     ??___wmul:	; 0 bytes @ 0x8
   313                           	global	??___lwdiv
   314  0078                     ??___lwdiv:	; 0 bytes @ 0x8
   315  0078                     	ds	1
   316                           	global	??_IdentifySensor
   317  0079                     ??_IdentifySensor:	; 0 bytes @ 0x9
   318                           psect	cstackBANK0,class=BANK0,space=1
   319                           global __pcstackBANK0
   320  0020                     __pcstackBANK0:
   321                           	global	??_GetData
   322  0020                     ??_GetData:	; 0 bytes @ 0x0
   323                           	global	ds_write@data
   324  0020                     ds_write@data:	; 1 bytes @ 0x0
   325                           	global	ds_read@databit
   326  0020                     ds_read@databit:	; 1 bytes @ 0x0
   327                           	global	onewire_write@data
   328  0020                     onewire_write@data:	; 1 bytes @ 0x0
   329                           	global	onewire_read@databit
   330  0020                     onewire_read@databit:	; 1 bytes @ 0x0
   331                           	global	___wmul@product
   332  0020                     ___wmul@product:	; 2 bytes @ 0x0
   333                           	global	___lwdiv@quotient
   334  0020                     ___lwdiv@quotient:	; 2 bytes @ 0x0
   335  0020                     	ds	1
   336                           	global	ds_write@count
   337  0021                     ds_write@count:	; 2 bytes @ 0x1
   338                           	global	ds_read@count
   339  0021                     ds_read@count:	; 2 bytes @ 0x1
   340                           	global	onewire_write@count
   341  0021                     onewire_write@count:	; 2 bytes @ 0x1
   342                           	global	onewire_read@count
   343  0021                     onewire_read@count:	; 2 bytes @ 0x1
   344  0021                     	ds	1
   345                           	global	___lwdiv@counter
   346  0022                     ___lwdiv@counter:	; 1 bytes @ 0x2
   347  0022                     	ds	1
   348                           	global	ds_write@lsb
   349  0023                     ds_write@lsb:	; 1 bytes @ 0x3
   350                           	global	ds_read@data
   351  0023                     ds_read@data:	; 1 bytes @ 0x3
   352                           	global	onewire_write@lsb
   353  0023                     onewire_write@lsb:	; 1 bytes @ 0x3
   354                           	global	onewire_read@data
   355  0023                     onewire_read@data:	; 1 bytes @ 0x3
   356  0023                     	ds	1
   357                           	global	?_onewire_sendpacket
   358  0024                     ?_onewire_sendpacket:	; 0 bytes @ 0x4
   359                           	global	?_ds_gettemperature
   360  0024                     ?_ds_gettemperature:	; 2 bytes @ 0x4
   361                           	global	onewire_listen@TxAddress
   362  0024                     onewire_listen@TxAddress:	; 1 bytes @ 0x4
   363                           	global	onewire_sendpacket@TxAddress
   364  0024                     onewire_sendpacket@TxAddress:	; 1 bytes @ 0x4
   365  0024                     	ds	1
   366                           	global	onewire_listen@address
   367  0025                     onewire_listen@address:	; 1 bytes @ 0x5
   368                           	global	onewire_sendpacket@payload
   369  0025                     onewire_sendpacket@payload:	; 1 bytes @ 0x5
   370  0025                     	ds	1
   371                           	global	??_ds_gettemperature
   372  0026                     ??_ds_gettemperature:	; 0 bytes @ 0x6
   373                           	global	onewire_listen@RxAddress
   374  0026                     onewire_listen@RxAddress:	; 1 bytes @ 0x6
   375                           	global	GetData@Check
   376  0026                     GetData@Check:	; 2 bytes @ 0x6
   377  0026                     	ds	1
   378                           	global	onewire_listen@Payload
   379  0027                     onewire_listen@Payload:	; 1 bytes @ 0x7
   380  0027                     	ds	1
   381                           	global	GetData@i
   382  0028                     GetData@i:	; 2 bytes @ 0x8
   383                           	global	onewire_listen@message_recieved
   384  0028                     onewire_listen@message_recieved:	; 2 bytes @ 0x8
   385  0028                     	ds	1
   386                           	global	ds_gettemperature@databitmap
   387  0029                     ds_gettemperature@databitmap:	; 1 bytes @ 0x9
   388  0029                     	ds	1
   389                           	global	GetData@i_1941
   390  002A                     GetData@i_1941:	; 2 bytes @ 0xA
   391                           	global	ds_gettemperature@result_int
   392  002A                     ds_gettemperature@result_int:	; 2 bytes @ 0xA
   393  002A                     	ds	2
   394                           	global	GetData@i_1942
   395  002C                     GetData@i_1942:	; 2 bytes @ 0xC
   396                           	global	ds_gettemperature@result
   397  002C                     ds_gettemperature@result:	; 2 bytes @ 0xC
   398  002C                     	ds	2
   399                           	global	GetData@i_1943
   400  002E                     GetData@i_1943:	; 2 bytes @ 0xE
   401                           	global	ds_gettemperature@result_decimals
   402  002E                     ds_gettemperature@result_decimals:	; 2 bytes @ 0xE
   403  002E                     	ds	2
   404                           	global	GetData@i_1944
   405  0030                     GetData@i_1944:	; 2 bytes @ 0x10
   406  0030                     	ds	2
   407                           	global	GetTemperature@databitmap
   408  0032                     GetTemperature@databitmap:	; 1 bytes @ 0x12
   409                           	global	GetHumidity@databitmap
   410  0032                     GetHumidity@databitmap:	; 1 bytes @ 0x12
   411  0032                     	ds	1
   412                           	global	GetTemperature@temperature
   413  0033                     GetTemperature@temperature:	; 2 bytes @ 0x13
   414                           	global	GetHumidity@humidity
   415  0033                     GetHumidity@humidity:	; 2 bytes @ 0x13
   416  0033                     	ds	2
   417                           	global	?_ReturnTemperature
   418  0035                     ?_ReturnTemperature:	; 0 bytes @ 0x15
   419                           	global	?_ReturnHumidity
   420  0035                     ?_ReturnHumidity:	; 0 bytes @ 0x15
   421                           	global	IdentifySensor@bitmap
   422  0035                     IdentifySensor@bitmap:	; 1 bytes @ 0x15
   423                           	global	ReturnTemperature@SensorType
   424  0035                     ReturnTemperature@SensorType:	; 2 bytes @ 0x15
   425                           	global	ReturnHumidity@SensorType
   426  0035                     ReturnHumidity@SensorType:	; 2 bytes @ 0x15
   427  0035                     	ds	1
   428                           	global	??_AutoDetectSensors
   429  0036                     ??_AutoDetectSensors:	; 0 bytes @ 0x16
   430  0036                     	ds	1
   431                           	global	ReturnTemperature@bitmap
   432  0037                     ReturnTemperature@bitmap:	; 1 bytes @ 0x17
   433                           	global	ReturnHumidity@bitmap
   434  0037                     ReturnHumidity@bitmap:	; 1 bytes @ 0x17
   435  0037                     	ds	1
   436                           	global	??_ReturnTemperature
   437  0038                     ??_ReturnTemperature:	; 0 bytes @ 0x18
   438                           	global	??_ReturnHumidity
   439  0038                     ??_ReturnHumidity:	; 0 bytes @ 0x18
   440  0038                     	ds	2
   441                           	global	ReturnTemperature@temperature
   442  003A                     ReturnTemperature@temperature:	; 2 bytes @ 0x1A
   443                           	global	ReturnHumidity@humidity
   444  003A                     ReturnHumidity@humidity:	; 2 bytes @ 0x1A
   445  003A                     	ds	2
   446                           	global	ReturnTemperature@temperature_4136
   447  003C                     ReturnTemperature@temperature_4136:	; 2 bytes @ 0x1C
   448  003C                     	ds	2
   449                           	global	??_main
   450  003E                     ??_main:	; 0 bytes @ 0x1E
   451  003E                     	ds	3
   452                           	global	main@input
   453  0041                     main@input:	; 1 bytes @ 0x21
   454  0041                     	ds	1
   455 ;;Data sizes: Strings 0, constant 0, data 0, bss 10, persistent 0 stack 0
   456 ;;Auto spaces:   Size  Autos    Used
   457 ;; COMMON          14      9      10
   458 ;; BANK0           80     34      44
   459 ;; BANK1           80      0       0
   460 ;; BANK2           80      0       0
   461                           
   462 ;;
   463 ;; Pointer list with targets:
   464                           
   465 ;; ?_ds_gettemperature	unsigned int  size(1) Largest target is 0
   466 ;;
   467 ;; ?___lwdiv	unsigned int  size(1) Largest target is 0
   468 ;;
   469 ;; ?___wmul	unsigned int  size(1) Largest target is 0
   470 ;;
   471 ;; ?_GetHumidity	unsigned int  size(1) Largest target is 0
   472 ;;
   473 ;; ?_GetTemperature	unsigned int  size(1) Largest target is 0
   474 ;;
   475                           
   476                           
   477 ;;
   478 ;; Critical Paths under _main in COMMON
   479 ;;
   480 ;;   _ReturnHumidity->_GetHumidity
   481 ;;   _ReturnTemperature->_GetTemperature
   482 ;;   _IdentifySensor->_GetTemperature
   483 ;;   _onewire_listen->_onewire_read
   484 ;;   _onewire_sendpacket->_onewire_write
   485 ;;   _ds_gettemperature->___lwdiv
   486 ;;   _GetData->_ReadBit
   487 ;;
   488 ;; Critical Paths under _isr in COMMON
   489 ;;
   490 ;;   None.
   491 ;;
   492 ;; Critical Paths under _main in BANK0
   493 ;;
   494 ;;   _main->_ReturnTemperature
   495 ;;   _AutoDetectSensors->_IdentifySensor
   496 ;;   _ReturnHumidity->_GetHumidity
   497 ;;   _ReturnTemperature->_GetTemperature
   498 ;;   _IdentifySensor->_GetTemperature
   499 ;;   _GetHumidity->_GetData
   500 ;;   _GetTemperature->_GetData
   501 ;;   _onewire_listen->_onewire_read
   502 ;;   _onewire_sendpacket->_onewire_write
   503 ;;   _ds_gettemperature->_ds_write
   504 ;;   _ds_gettemperature->_ds_read
   505 ;;
   506 ;; Critical Paths under _isr in BANK0
   507 ;;
   508 ;;   None.
   509 ;;
   510 ;; Critical Paths under _main in BANK1
   511 ;;
   512 ;;   None.
   513 ;;
   514 ;; Critical Paths under _isr in BANK1
   515 ;;
   516 ;;   None.
   517 ;;
   518 ;; Critical Paths under _main in BANK2
   519 ;;
   520 ;;   None.
   521 ;;
   522 ;; Critical Paths under _isr in BANK2
   523 ;;
   524 ;;   None.
   525                           
   526 ;;
   527 ;;Main: autosize = 0, tempsize = 3, incstack = 0, save=0
   528 ;;
   529                           
   530 ;;
   531 ;;Call Graph Tables:
   532 ;;
   533 ;; ---------------------------------------------------------------------------------
   534 ;; (Depth) Function   	        Calls       Base Space   Used Autos Params    Refs
   535 ;; ---------------------------------------------------------------------------------
   536 ;; (0) _main                                                 4     4      0    5502
   537 ;;                                             30 BANK0      4     4      0
   538 ;;                       _onewire_init
   539 ;;                     _onewire_listen
   540 ;;                 _onewire_sendpacket
   541 ;;                  _ReturnTemperature
   542 ;;                     _ReturnHumidity
   543 ;;                  _AutoDetectSensors
   544 ;; ---------------------------------------------------------------------------------
   545 ;; (1) _AutoDetectSensors                                    2     2      0    1639
   546 ;;                                             22 BANK0      2     2      0
   547 ;;                     _IdentifySensor
   548 ;;                 _onewire_sendpacket
   549 ;; ---------------------------------------------------------------------------------
   550 ;; (1) _ReturnHumidity                                       7     4      3     850
   551 ;;                                             21 BANK0      7     4      3
   552 ;;                 _onewire_sendpacket
   553 ;;                        _GetHumidity
   554 ;; ---------------------------------------------------------------------------------
   555 ;; (1) _ReturnTemperature                                    9     6      3    1992
   556 ;;                                             21 BANK0      9     6      3
   557 ;;                 _onewire_sendpacket
   558 ;;                     _GetTemperature
   559 ;;                  _ds_gettemperature
   560 ;; ---------------------------------------------------------------------------------
   561 ;; (2) _IdentifySensor                                       1     1      0    1342
   562 ;;                                             21 BANK0      1     1      0
   563 ;;                     _GetTemperature
   564 ;;                  _ds_gettemperature
   565 ;; ---------------------------------------------------------------------------------
   566 ;; (2) _GetHumidity                                          7     5      2     299
   567 ;;                                              5 COMMON     4     2      2
   568 ;;                                             18 BANK0      3     3      0
   569 ;;                            _GetData
   570 ;; ---------------------------------------------------------------------------------
   571 ;; (3) _GetTemperature                                       7     5      2     299
   572 ;;                                              5 COMMON     4     2      2
   573 ;;                                             18 BANK0      3     3      0
   574 ;;                            _GetData
   575 ;; ---------------------------------------------------------------------------------
   576 ;; (1) _onewire_listen                                       7     7      0     380
   577 ;;                                              6 COMMON     1     1      0
   578 ;;                                              4 BANK0      6     6      0
   579 ;;                       _onewire_read
   580 ;; ---------------------------------------------------------------------------------
   581 ;; (2) _onewire_sendpacket                                   4     2      2     297
   582 ;;                                              6 COMMON     2     2      0
   583 ;;                                              4 BANK0      2     0      2
   584 ;;                      _onewire_write
   585 ;; ---------------------------------------------------------------------------------
   586 ;; (3) _ds_gettemperature                                   12    10      2     981
   587 ;;                                              4 BANK0     12    10      2
   588 ;;                           _ds_reset
   589 ;;                           _ds_write
   590 ;;                            _ds_read
   591 ;;                             ___wmul
   592 ;;                            ___lwdiv
   593 ;; ---------------------------------------------------------------------------------
   594 ;; (4) _GetData                                             18    18      0     253
   595 ;;                                              0 BANK0     18    18      0
   596 ;;                            _ReadBit
   597 ;; ---------------------------------------------------------------------------------
   598 ;; (2) _onewire_read                                         6     6      0     241
   599 ;;                                              4 COMMON     2     2      0
   600 ;;                                              0 BANK0      4     4      0
   601 ;; ---------------------------------------------------------------------------------
   602 ;; (3) _onewire_write                                        6     6      0     204
   603 ;;                                              4 COMMON     2     2      0
   604 ;;                                              0 BANK0      4     4      0
   605 ;; ---------------------------------------------------------------------------------
   606 ;; (4) _ds_read                                              6     6      0     210
   607 ;;                                              4 COMMON     2     2      0
   608 ;;                                              0 BANK0      4     4      0
   609 ;; ---------------------------------------------------------------------------------
   610 ;; (4) _ds_write                                             6     6      0     204
   611 ;;                                              4 COMMON     2     2      0
   612 ;;                                              0 BANK0      4     4      0
   613 ;; ---------------------------------------------------------------------------------
   614 ;; (4) _ds_reset                                             1     1      0       0
   615 ;;                                              4 COMMON     1     1      0
   616 ;; ---------------------------------------------------------------------------------
   617 ;; (5) _ReadBit                                              1     1      0       0
   618 ;;                                              4 COMMON     1     1      0
   619 ;; ---------------------------------------------------------------------------------
   620 ;; (4) ___lwdiv                                              8     4      4     162
   621 ;;                                              4 COMMON     5     1      4
   622 ;;                                              0 BANK0      3     3      0
   623 ;; ---------------------------------------------------------------------------------
   624 ;; (4) ___wmul                                               6     2      4     136
   625 ;;                                              4 COMMON     4     0      4
   626 ;;                                              0 BANK0      2     2      0
   627 ;; ---------------------------------------------------------------------------------
   628 ;; (1) _onewire_init                                         0     0      0       0
   629 ;; ---------------------------------------------------------------------------------
   630 ;; Estimated maximum stack depth 5
   631 ;; ---------------------------------------------------------------------------------
   632 ;; (Depth) Function   	        Calls       Base Space   Used Autos Params    Refs
   633 ;; ---------------------------------------------------------------------------------
   634 ;; (6) _isr                                                  4     4      0       0
   635 ;;                                              0 COMMON     4     4      0
   636 ;; ---------------------------------------------------------------------------------
   637 ;; Estimated maximum stack depth 6
   638 ;; ---------------------------------------------------------------------------------
   639                           
   640 ;; Call Graph Graphs:
   641                           
   642 ;; _main (ROOT)
   643 ;;   _onewire_init
   644 ;;   _onewire_listen
   645 ;;     _onewire_read
   646 ;;   _onewire_sendpacket
   647 ;;     _onewire_write
   648 ;;   _ReturnTemperature
   649 ;;     _onewire_sendpacket
   650 ;;       _onewire_write
   651 ;;     _GetTemperature
   652 ;;       _GetData
   653 ;;         _ReadBit
   654 ;;     _ds_gettemperature
   655 ;;       _ds_reset
   656 ;;       _ds_write
   657 ;;       _ds_read
   658 ;;       ___wmul
   659 ;;       ___lwdiv
   660 ;;   _ReturnHumidity
   661 ;;     _onewire_sendpacket
   662 ;;       _onewire_write
   663 ;;     _GetHumidity
   664 ;;       _GetData
   665 ;;         _ReadBit
   666 ;;   _AutoDetectSensors
   667 ;;     _IdentifySensor
   668 ;;       _GetTemperature
   669 ;;         _GetData
   670 ;;           _ReadBit
   671 ;;       _ds_gettemperature
   672 ;;         _ds_reset
   673 ;;         _ds_write
   674 ;;         _ds_read
   675 ;;         ___wmul
   676 ;;         ___lwdiv
   677 ;;     _onewire_sendpacket
   678 ;;       _onewire_write
   679 ;;
   680 ;; _isr (ROOT)
   681 ;;
   682                           
   683 ;; Address spaces:
   684                           
   685 ;;Name               Size   Autos  Total    Cost      Usage
   686 ;;BITCOMMON            E      0       1       0        7.1%
   687 ;;EEDATA             100      0       0       0        0.0%
   688 ;;NULL                 0      0       0       0        0.0%
   689 ;;CODE                 0      0       0       0        0.0%
   690 ;;COMMON               E      9       A       1       71.4%
   691 ;;BITSFR0              0      0       0       1        0.0%
   692 ;;SFR0                 0      0       0       1        0.0%
   693 ;;BITSFR1              0      0       0       2        0.0%
   694 ;;SFR1                 0      0       0       2        0.0%
   695 ;;STACK                0      0       5       2        0.0%
   696 ;;BANK0               50     22      2C       3       55.0%
   697 ;;BITBANK1            50      0       0       4        0.0%
   698 ;;BITSFR3              0      0       0       4        0.0%
   699 ;;SFR3                 0      0       0       4        0.0%
   700 ;;BANK1               50      0       0       5        0.0%
   701 ;;BITSFR2              0      0       0       5        0.0%
   702 ;;SFR2                 0      0       0       5        0.0%
   703 ;;BITBANK2            50      0       0       6        0.0%
   704 ;;BANK2               50      0       0       7        0.0%
   705 ;;ABS                  0      0      36       8        0.0%
   706 ;;BITBANK0            50      0       0       9        0.0%
   707 ;;DATA                 0      0      3B      10        0.0%
   708                           
   709                           	global	_main
   710                           psect	maintext,global,class=CODE,delta=2
   711                           global __pmaintext
   712  0013                     __pmaintext:
   713                           
   714 ;; *************** function _main *****************
   715 ;; Defined at:
   716 ;;		line 183 in file "C:/Users/Dave/MPLABXProjects/IO Test.X/IOTest.c"
   717 ;; Parameters:    Size  Location     Type
   718 ;;		None
   719 ;; Auto vars:     Size  Location     Type
   720 ;;  input           1   33[BANK0 ] unsigned char 
   721 ;; Return value:  Size  Location     Type
   722 ;;		None               void
   723 ;; Registers used:
   724 ;;		wreg, status,2, status,0, btemp+1, pclath, cstack
   725 ;; Tracked objects:
   726 ;;		On entry : 17F/0
   727 ;;		On exit  : 0/0
   728 ;;		Unchanged: 0/0
   729 ;; Data sizes:     COMMON   BANK0   BANK1   BANK2
   730 ;;      Params:         0       0       0       0
   731 ;;      Locals:         0       1       0       0
   732 ;;      Temps:          0       3       0       0
   733 ;;      Totals:         0       4       0       0
   734 ;;Total ram usage:        4 bytes
   735 ;; Hardware stack levels required when called:    6
   736 ;; This function calls:
   737 ;;		_onewire_init
   738 ;;		_onewire_listen
   739 ;;		_onewire_sendpacket
   740 ;;		_ReturnTemperature
   741 ;;		_ReturnHumidity
   742 ;;		_AutoDetectSensors
   743 ;; This function is called by:
   744 ;;		Startup code after reset
   745 ;; This function uses a non-reentrant model
   746 ;;
   747                           psect	maintext
   748                           	file	"C:/Users/Dave/MPLABXProjects/IO Test.X/IOTest.c"
   749                           	line	183
   750                           	global	__size_of_main
   751  0185                     	__size_of_main	equ	__end_of_main-_main
   752                           	
   753  0013                     _main:	
   754                           	opt	stack 2
   755                           ; Regs used in _main: [wreg+status,2+status,0+btemp+1+pclath+cstack]
   756                           	line	185
   757                           	
   758  0013                     l8392:	
   759                           ;IOTest.c: 184: unsigned char input;
   760                           ;IOTest.c: 185: OSCCON = 0b01110110;
   761  0013  3076               	movlw	(076h)
   762  0014  1683               	bsf	status, 5	;RP0=1, select bank1
   763  0015  1303               	bcf	status, 6	;RP1=0, select bank1
   764  0016  008F               	movwf	(143)^080h	;volatile
   765                           	line	193
   766                           	
   767  0017                     l8394:	
   768                           ;IOTest.c: 193: ANSEL = 0;
   769  0017  1283               	bcf	status, 5	;RP0=0, select bank2
   770  0018  1703               	bsf	status, 6	;RP1=1, select bank2
   771  0019  019E               	clrf	(286)^0100h	;volatile
   772                           	line	194
   773                           	
   774  001A                     l8396:	
   775                           ;IOTest.c: 194: ANSELH = 0;
   776  001A  019F               	clrf	(287)^0100h	;volatile
   777                           	line	195
   778                           	
   779  001B                     l8398:	
   780                           ;IOTest.c: 195: PORTB = 0;
   781  001B  1283               	bcf	status, 5	;RP0=0, select bank0
   782  001C  1303               	bcf	status, 6	;RP1=0, select bank0
   783  001D  0186               	clrf	(6)	;volatile
   784                           	line	196
   785                           	
   786  001E                     l8400:	
   787                           ;IOTest.c: 196: TRISB = 0;
   788  001E  1683               	bsf	status, 5	;RP0=1, select bank1
   789  001F  1303               	bcf	status, 6	;RP1=0, select bank1
   790  0020  0186               	clrf	(134)^080h	;volatile
   791                           	line	197
   792                           	
   793  0021                     l8402:	
   794                           ;IOTest.c: 197: PORTC = 0;
   795  0021  1283               	bcf	status, 5	;RP0=0, select bank0
   796  0022  1303               	bcf	status, 6	;RP1=0, select bank0
   797  0023  0187               	clrf	(7)	;volatile
   798                           	line	198
   799                           	
   800  0024                     l8404:	
   801                           ;IOTest.c: 198: TRISC = 0b00001111;
   802  0024  300F               	movlw	(0Fh)
   803  0025  1683               	bsf	status, 5	;RP0=1, select bank1
   804  0026  1303               	bcf	status, 6	;RP1=0, select bank1
   805  0027  0087               	movwf	(135)^080h	;volatile
   806                           	line	200
   807                           	
   808  0028                     l8406:	
   809                           ;IOTest.c: 200: onewire_init();
   810  0028  158A  25A6  118A   	fcall	_onewire_init
   811                           	line	201
   812                           	
   813  002B                     l8408:	
   814                           ;IOTest.c: 201: _delay((unsigned long)((1000)*(8000000/4000.0)));
   815                           	opt asmopt_off
   816  002B  300B               movlw  11
   817  002C  1283               	bcf	status, 5	;RP0=0, select bank0
   818  002D  1303               	bcf	status, 6	;RP1=0, select bank0
   819  002E  00C0               movwf	((??_main+0)+0+2),f
   820  002F  3026               movlw	38
   821  0030  00BF               movwf	((??_main+0)+0+1),f
   822  0031  3066               	movlw	102
   823  0032  00BE               movwf	((??_main+0)+0),f
   824  0033                     u4647:
   825  0033  0BBE               	decfsz	((??_main+0)+0),f
   826  0034  2833               	goto	u4647
   827  0035  0BBF               	decfsz	((??_main+0)+0+1),f
   828  0036  2833               	goto	u4647
   829  0037  0BC0               	decfsz	((??_main+0)+0+2),f
   830  0038  2833               	goto	u4647
   831  0039  283A               	nop2
   832                           opt asmopt_on
   833                           
   834                           	line	203
   835                           	
   836  003A                     l8410:	
   837                           ;IOTest.c: 203: DHTTimeOut = 0;
   838  003A  1079               	bcf	(_DHTTimeOut/8),(_DHTTimeOut)&7
   839  003B  283C               	goto	l8412
   840                           	line	217
   841                           ;IOTest.c: 217: while(1)
   842                           	
   843  003C                     l3576:	
   844                           	line	220
   845                           	
   846  003C                     l8412:	
   847                           ;IOTest.c: 218: {
   848                           ;IOTest.c: 220: input = onewire_listen(0x10);
   849  003C  3010               	movlw	(010h)
   850  003D  118A  27AC  118A   	fcall	_onewire_listen
   851  0040  1283               	bcf	status, 5	;RP0=0, select bank0
   852  0041  1303               	bcf	status, 6	;RP1=0, select bank0
   853  0042  00BE               	movwf	(??_main+0)+0
   854  0043  083E               	movf	(??_main+0)+0,w
   855  0044  00C1               	movwf	(main@input)
   856                           	line	222
   857                           	
   858  0045                     l8414:	
   859                           ;IOTest.c: 222: if (input==0)
   860  0045  08C1               	movf	(main@input),f
   861  0046  1D03               	skipz
   862  0047  2849               	goto	u4531
   863  0048  284A               	goto	u4530
   864  0049                     u4531:
   865  0049  285F               	goto	l8420
   866  004A                     u4530:
   867                           	line	225
   868                           	
   869  004A                     l8416:	
   870                           ;IOTest.c: 223: {
   871                           ;IOTest.c: 225: _delay((unsigned long)((10)*(8000000/4000.0)));
   872                           	opt asmopt_off
   873  004A  301A               movlw	26
   874  004B  00BF               movwf	((??_main+0)+0+1),f
   875  004C  30F8               	movlw	248
   876  004D  00BE               movwf	((??_main+0)+0),f
   877  004E                     u4657:
   878  004E  0BBE               	decfsz	((??_main+0)+0),f
   879  004F  284E               	goto	u4657
   880  0050  0BBF               	decfsz	((??_main+0)+0+1),f
   881  0051  284E               	goto	u4657
   882  0052  0064               	clrwdt
   883                           opt asmopt_on
   884                           
   885                           	line	226
   886                           	
   887  0053                     l8418:	
   888                           ;IOTest.c: 226: onewire_sendpacket(0x00,0x10,0x00);
   889  0053  3010               	movlw	(010h)
   890  0054  1283               	bcf	status, 5	;RP0=0, select bank0
   891  0055  1303               	bcf	status, 6	;RP1=0, select bank0
   892  0056  00BE               	movwf	(??_main+0)+0
   893  0057  083E               	movf	(??_main+0)+0,w
   894  0058  00A4               	movwf	(?_onewire_sendpacket)
   895  0059  01A5               	clrf	0+(?_onewire_sendpacket)+01h
   896  005A  3000               	movlw	(0)
   897  005B  158A  25CE  118A   	fcall	_onewire_sendpacket
   898                           	line	227
   899                           ;IOTest.c: 227: }
   900  005E  283C               	goto	l8412
   901                           	line	228
   902                           	
   903  005F                     l3577:	
   904                           	
   905  005F                     l8420:	
   906                           ;IOTest.c: 228: else if (input==1)
   907  005F  1283               	bcf	status, 5	;RP0=0, select bank0
   908  0060  1303               	bcf	status, 6	;RP1=0, select bank0
   909  0061  0841               	movf	(main@input),w
   910  0062  3A01               	xorlw	01h
   911  0063  1D03               	skipz
   912  0064  2866               	goto	u4541
   913  0065  2867               	goto	u4540
   914  0066                     u4541:
   915  0066  2875               	goto	l8424
   916  0067                     u4540:
   917                           	line	230
   918                           	
   919  0067                     l8422:	
   920                           ;IOTest.c: 229: {
   921                           ;IOTest.c: 230: ReturnTemperature(Sensor1, 0b00000001);
   922  0067  0846               	movf	(_Sensor1),w
   923  0068  00BE               	movwf	(??_main+0)+0
   924  0069  01BF               	clrf	(??_main+0)+0+1
   925  006A  083E               	movf	0+(??_main+0)+0,w
   926  006B  00B5               	movwf	(?_ReturnTemperature)
   927  006C  083F               	movf	1+(??_main+0)+0,w
   928  006D  00B6               	movwf	(?_ReturnTemperature+1)
   929  006E  01B7               	clrf	0+(?_ReturnTemperature)+02h
   930  006F  1403               	bsf	status,0
   931  0070  0DB7               	rlf	0+(?_ReturnTemperature)+02h,f
   932  0071  118A  2311  118A   	fcall	_ReturnTemperature
   933                           	line	231
   934                           ;IOTest.c: 231: }
   935  0074  283C               	goto	l8412
   936                           	line	232
   937                           	
   938  0075                     l3579:	
   939                           	
   940  0075                     l8424:	
   941                           ;IOTest.c: 232: else if (input==2)
   942  0075  1283               	bcf	status, 5	;RP0=0, select bank0
   943  0076  1303               	bcf	status, 6	;RP1=0, select bank0
   944  0077  0841               	movf	(main@input),w
   945  0078  3A02               	xorlw	02h
   946  0079  1D03               	skipz
   947  007A  287C               	goto	u4551
   948  007B  287D               	goto	u4550
   949  007C                     u4551:
   950  007C  288B               	goto	l8428
   951  007D                     u4550:
   952                           	line	234
   953                           	
   954  007D                     l8426:	
   955                           ;IOTest.c: 233: {
   956                           ;IOTest.c: 234: ReturnHumidity(Sensor1, 0b00000001);
   957  007D  0846               	movf	(_Sensor1),w
   958  007E  00BE               	movwf	(??_main+0)+0
   959  007F  01BF               	clrf	(??_main+0)+0+1
   960  0080  083E               	movf	0+(??_main+0)+0,w
   961  0081  00B5               	movwf	(?_ReturnHumidity)
   962  0082  083F               	movf	1+(??_main+0)+0,w
   963  0083  00B6               	movwf	(?_ReturnHumidity+1)
   964  0084  01B7               	clrf	0+(?_ReturnHumidity)+02h
   965  0085  1403               	bsf	status,0
   966  0086  0DB7               	rlf	0+(?_ReturnHumidity)+02h,f
   967  0087  118A  243A  118A   	fcall	_ReturnHumidity
   968                           	line	235
   969                           ;IOTest.c: 235: }
   970  008A  283C               	goto	l8412
   971                           	line	236
   972                           	
   973  008B                     l3581:	
   974                           	
   975  008B                     l8428:	
   976                           ;IOTest.c: 236: else if (input==3)
   977  008B  1283               	bcf	status, 5	;RP0=0, select bank0
   978  008C  1303               	bcf	status, 6	;RP1=0, select bank0
   979  008D  0841               	movf	(main@input),w
   980  008E  3A03               	xorlw	03h
   981  008F  1D03               	skipz
   982  0090  2892               	goto	u4561
   983  0091  2893               	goto	u4560
   984  0092                     u4561:
   985  0092  28A2               	goto	l8432
   986  0093                     u4560:
   987                           	line	238
   988                           	
   989  0093                     l8430:	
   990                           ;IOTest.c: 237: {
   991                           ;IOTest.c: 238: ReturnTemperature(Sensor2, 0b00000010);
   992  0093  0847               	movf	(_Sensor2),w
   993  0094  00BE               	movwf	(??_main+0)+0
   994  0095  01BF               	clrf	(??_main+0)+0+1
   995  0096  083E               	movf	0+(??_main+0)+0,w
   996  0097  00B5               	movwf	(?_ReturnTemperature)
   997  0098  083F               	movf	1+(??_main+0)+0,w
   998  0099  00B6               	movwf	(?_ReturnTemperature+1)
   999  009A  3002               	movlw	(02h)
  1000  009B  00C0               	movwf	(??_main+2)+0
  1001  009C  0840               	movf	(??_main+2)+0,w
  1002  009D  00B7               	movwf	0+(?_ReturnTemperature)+02h
  1003  009E  118A  2311  118A   	fcall	_ReturnTemperature
  1004                           	line	239
  1005                           ;IOTest.c: 239: }
  1006  00A1  283C               	goto	l8412
  1007                           	line	240
  1008                           	
  1009  00A2                     l3583:	
  1010                           	
  1011  00A2                     l8432:	
  1012                           ;IOTest.c: 240: else if (input==4)
  1013  00A2  1283               	bcf	status, 5	;RP0=0, select bank0
  1014  00A3  1303               	bcf	status, 6	;RP1=0, select bank0
  1015  00A4  0841               	movf	(main@input),w
  1016  00A5  3A04               	xorlw	04h
  1017  00A6  1D03               	skipz
  1018  00A7  28A9               	goto	u4571
  1019  00A8  28AA               	goto	u4570
  1020  00A9                     u4571:
  1021  00A9  28B9               	goto	l8436
  1022  00AA                     u4570:
  1023                           	line	242
  1024                           	
  1025  00AA                     l8434:	
  1026                           ;IOTest.c: 241: {
  1027                           ;IOTest.c: 242: ReturnHumidity(Sensor2, 0b00000010);
  1028  00AA  0847               	movf	(_Sensor2),w
  1029  00AB  00BE               	movwf	(??_main+0)+0
  1030  00AC  01BF               	clrf	(??_main+0)+0+1
  1031  00AD  083E               	movf	0+(??_main+0)+0,w
  1032  00AE  00B5               	movwf	(?_ReturnHumidity)
  1033  00AF  083F               	movf	1+(??_main+0)+0,w
  1034  00B0  00B6               	movwf	(?_ReturnHumidity+1)
  1035  00B1  3002               	movlw	(02h)
  1036  00B2  00C0               	movwf	(??_main+2)+0
  1037  00B3  0840               	movf	(??_main+2)+0,w
  1038  00B4  00B7               	movwf	0+(?_ReturnHumidity)+02h
  1039  00B5  118A  243A  118A   	fcall	_ReturnHumidity
  1040                           	line	243
  1041                           ;IOTest.c: 243: }
  1042  00B8  283C               	goto	l8412
  1043                           	line	244
  1044                           	
  1045  00B9                     l3585:	
  1046                           	
  1047  00B9                     l8436:	
  1048                           ;IOTest.c: 244: else if (input==5)
  1049  00B9  1283               	bcf	status, 5	;RP0=0, select bank0
  1050  00BA  1303               	bcf	status, 6	;RP1=0, select bank0
  1051  00BB  0841               	movf	(main@input),w
  1052  00BC  3A05               	xorlw	05h
  1053  00BD  1D03               	skipz
  1054  00BE  28C0               	goto	u4581
  1055  00BF  28C1               	goto	u4580
  1056  00C0                     u4581:
  1057  00C0  28D0               	goto	l8440
  1058  00C1                     u4580:
  1059                           	line	246
  1060                           	
  1061  00C1                     l8438:	
  1062                           ;IOTest.c: 245: {
  1063                           ;IOTest.c: 246: ReturnTemperature(Sensor3, 0b00000100);
  1064  00C1  0848               	movf	(_Sensor3),w
  1065  00C2  00BE               	movwf	(??_main+0)+0
  1066  00C3  01BF               	clrf	(??_main+0)+0+1
  1067  00C4  083E               	movf	0+(??_main+0)+0,w
  1068  00C5  00B5               	movwf	(?_ReturnTemperature)
  1069  00C6  083F               	movf	1+(??_main+0)+0,w
  1070  00C7  00B6               	movwf	(?_ReturnTemperature+1)
  1071  00C8  3004               	movlw	(04h)
  1072  00C9  00C0               	movwf	(??_main+2)+0
  1073  00CA  0840               	movf	(??_main+2)+0,w
  1074  00CB  00B7               	movwf	0+(?_ReturnTemperature)+02h
  1075  00CC  118A  2311  118A   	fcall	_ReturnTemperature
  1076                           	line	247
  1077                           ;IOTest.c: 247: }
  1078  00CF  283C               	goto	l8412
  1079                           	line	248
  1080                           	
  1081  00D0                     l3587:	
  1082                           	
  1083  00D0                     l8440:	
  1084                           ;IOTest.c: 248: else if (input==6)
  1085  00D0  1283               	bcf	status, 5	;RP0=0, select bank0
  1086  00D1  1303               	bcf	status, 6	;RP1=0, select bank0
  1087  00D2  0841               	movf	(main@input),w
  1088  00D3  3A06               	xorlw	06h
  1089  00D4  1D03               	skipz
  1090  00D5  28D7               	goto	u4591
  1091  00D6  28D8               	goto	u4590
  1092  00D7                     u4591:
  1093  00D7  28E7               	goto	l8444
  1094  00D8                     u4590:
  1095                           	line	250
  1096                           	
  1097  00D8                     l8442:	
  1098                           ;IOTest.c: 249: {
  1099                           ;IOTest.c: 250: ReturnHumidity(Sensor3, 0b00000100);
  1100  00D8  0848               	movf	(_Sensor3),w
  1101  00D9  00BE               	movwf	(??_main+0)+0
  1102  00DA  01BF               	clrf	(??_main+0)+0+1
  1103  00DB  083E               	movf	0+(??_main+0)+0,w
  1104  00DC  00B5               	movwf	(?_ReturnHumidity)
  1105  00DD  083F               	movf	1+(??_main+0)+0,w
  1106  00DE  00B6               	movwf	(?_ReturnHumidity+1)
  1107  00DF  3004               	movlw	(04h)
  1108  00E0  00C0               	movwf	(??_main+2)+0
  1109  00E1  0840               	movf	(??_main+2)+0,w
  1110  00E2  00B7               	movwf	0+(?_ReturnHumidity)+02h
  1111  00E3  118A  243A  118A   	fcall	_ReturnHumidity
  1112                           	line	251
  1113                           ;IOTest.c: 251: }
  1114  00E6  283C               	goto	l8412
  1115                           	line	252
  1116                           	
  1117  00E7                     l3589:	
  1118                           	
  1119  00E7                     l8444:	
  1120                           ;IOTest.c: 252: else if (input==7)
  1121  00E7  1283               	bcf	status, 5	;RP0=0, select bank0
  1122  00E8  1303               	bcf	status, 6	;RP1=0, select bank0
  1123  00E9  0841               	movf	(main@input),w
  1124  00EA  3A07               	xorlw	07h
  1125  00EB  1D03               	skipz
  1126  00EC  28EE               	goto	u4601
  1127  00ED  28EF               	goto	u4600
  1128  00EE                     u4601:
  1129  00EE  28FE               	goto	l8448
  1130  00EF                     u4600:
  1131                           	line	254
  1132                           	
  1133  00EF                     l8446:	
  1134                           ;IOTest.c: 253: {
  1135                           ;IOTest.c: 254: ReturnTemperature(Sensor4, 0b00001000);
  1136  00EF  0849               	movf	(_Sensor4),w
  1137  00F0  00BE               	movwf	(??_main+0)+0
  1138  00F1  01BF               	clrf	(??_main+0)+0+1
  1139  00F2  083E               	movf	0+(??_main+0)+0,w
  1140  00F3  00B5               	movwf	(?_ReturnTemperature)
  1141  00F4  083F               	movf	1+(??_main+0)+0,w
  1142  00F5  00B6               	movwf	(?_ReturnTemperature+1)
  1143  00F6  3008               	movlw	(08h)
  1144  00F7  00C0               	movwf	(??_main+2)+0
  1145  00F8  0840               	movf	(??_main+2)+0,w
  1146  00F9  00B7               	movwf	0+(?_ReturnTemperature)+02h
  1147  00FA  118A  2311  118A   	fcall	_ReturnTemperature
  1148                           	line	255
  1149                           ;IOTest.c: 255: }
  1150  00FD  283C               	goto	l8412
  1151                           	line	256
  1152                           	
  1153  00FE                     l3591:	
  1154                           	
  1155  00FE                     l8448:	
  1156                           ;IOTest.c: 256: else if (input==8)
  1157  00FE  1283               	bcf	status, 5	;RP0=0, select bank0
  1158  00FF  1303               	bcf	status, 6	;RP1=0, select bank0
  1159  0100  0841               	movf	(main@input),w
  1160  0101  3A08               	xorlw	08h
  1161  0102  1D03               	skipz
  1162  0103  2905               	goto	u4611
  1163  0104  2906               	goto	u4610
  1164  0105                     u4611:
  1165  0105  2915               	goto	l8452
  1166  0106                     u4610:
  1167                           	line	258
  1168                           	
  1169  0106                     l8450:	
  1170                           ;IOTest.c: 257: {
  1171                           ;IOTest.c: 258: ReturnHumidity(Sensor4, 0b00001000);
  1172  0106  0849               	movf	(_Sensor4),w
  1173  0107  00BE               	movwf	(??_main+0)+0
  1174  0108  01BF               	clrf	(??_main+0)+0+1
  1175  0109  083E               	movf	0+(??_main+0)+0,w
  1176  010A  00B5               	movwf	(?_ReturnHumidity)
  1177  010B  083F               	movf	1+(??_main+0)+0,w
  1178  010C  00B6               	movwf	(?_ReturnHumidity+1)
  1179  010D  3008               	movlw	(08h)
  1180  010E  00C0               	movwf	(??_main+2)+0
  1181  010F  0840               	movf	(??_main+2)+0,w
  1182  0110  00B7               	movwf	0+(?_ReturnHumidity)+02h
  1183  0111  118A  243A  118A   	fcall	_ReturnHumidity
  1184                           	line	259
  1185                           ;IOTest.c: 259: }
  1186  0114  283C               	goto	l8412
  1187                           	line	260
  1188                           	
  1189  0115                     l3593:	
  1190                           	
  1191  0115                     l8452:	
  1192                           ;IOTest.c: 260: else if (input==0xFD)
  1193  0115  1283               	bcf	status, 5	;RP0=0, select bank0
  1194  0116  1303               	bcf	status, 6	;RP1=0, select bank0
  1195  0117  0841               	movf	(main@input),w
  1196  0118  3AFD               	xorlw	0FDh
  1197  0119  1D03               	skipz
  1198  011A  291C               	goto	u4621
  1199  011B  291D               	goto	u4620
  1200  011C                     u4621:
  1201  011C  294B               	goto	l8460
  1202  011D                     u4620:
  1203                           	line	264
  1204                           	
  1205  011D                     l8454:	
  1206                           ;IOTest.c: 261: {
  1207                           ;IOTest.c: 264: _delay((unsigned long)((10)*(8000000/4000.0)));
  1208                           	opt asmopt_off
  1209  011D  301A               movlw	26
  1210  011E  00BF               movwf	((??_main+0)+0+1),f
  1211  011F  30F8               	movlw	248
  1212  0120  00BE               movwf	((??_main+0)+0),f
  1213  0121                     u4667:
  1214  0121  0BBE               	decfsz	((??_main+0)+0),f
  1215  0122  2921               	goto	u4667
  1216  0123  0BBF               	decfsz	((??_main+0)+0+1),f
  1217  0124  2921               	goto	u4667
  1218  0125  0064               	clrwdt
  1219                           opt asmopt_on
  1220                           
  1221                           	line	265
  1222                           	
  1223  0126                     l8456:	
  1224                           ;IOTest.c: 265: onewire_sendpacket(0x00,0x10,0x00);
  1225  0126  3010               	movlw	(010h)
  1226  0127  1283               	bcf	status, 5	;RP0=0, select bank0
  1227  0128  1303               	bcf	status, 6	;RP1=0, select bank0
  1228  0129  00BE               	movwf	(??_main+0)+0
  1229  012A  083E               	movf	(??_main+0)+0,w
  1230  012B  00A4               	movwf	(?_onewire_sendpacket)
  1231  012C  01A5               	clrf	0+(?_onewire_sendpacket)+01h
  1232  012D  3000               	movlw	(0)
  1233  012E  158A  25CE  118A   	fcall	_onewire_sendpacket
  1234                           	line	266
  1235                           	
  1236  0131                     l8458:	
  1237                           ;IOTest.c: 266: _delay((unsigned long)((10)*(8000000/4000.0)));
  1238                           	opt asmopt_off
  1239  0131  301A               movlw	26
  1240  0132  1283               	bcf	status, 5	;RP0=0, select bank0
  1241  0133  1303               	bcf	status, 6	;RP1=0, select bank0
  1242  0134  00BF               movwf	((??_main+0)+0+1),f
  1243  0135  30F8               	movlw	248
  1244  0136  00BE               movwf	((??_main+0)+0),f
  1245  0137                     u4677:
  1246  0137  0BBE               	decfsz	((??_main+0)+0),f
  1247  0138  2937               	goto	u4677
  1248  0139  0BBF               	decfsz	((??_main+0)+0+1),f
  1249  013A  2937               	goto	u4677
  1250  013B  0064               	clrwdt
  1251                           opt asmopt_on
  1252                           
  1253                           	line	267
  1254                           ;IOTest.c: 267: onewire_sendpacket(0x00,0x10,0x04);
  1255  013C  3010               	movlw	(010h)
  1256  013D  1283               	bcf	status, 5	;RP0=0, select bank0
  1257  013E  1303               	bcf	status, 6	;RP1=0, select bank0
  1258  013F  00BE               	movwf	(??_main+0)+0
  1259  0140  083E               	movf	(??_main+0)+0,w
  1260  0141  00A4               	movwf	(?_onewire_sendpacket)
  1261  0142  3004               	movlw	(04h)
  1262  0143  00BF               	movwf	(??_main+1)+0
  1263  0144  083F               	movf	(??_main+1)+0,w
  1264  0145  00A5               	movwf	0+(?_onewire_sendpacket)+01h
  1265  0146  3000               	movlw	(0)
  1266  0147  158A  25CE  118A   	fcall	_onewire_sendpacket
  1267                           	line	268
  1268                           ;IOTest.c: 268: }
  1269  014A  283C               	goto	l8412
  1270                           	line	269
  1271                           	
  1272  014B                     l3595:	
  1273                           	
  1274  014B                     l8460:	
  1275                           ;IOTest.c: 269: else if (input==0xFF)
  1276  014B  1283               	bcf	status, 5	;RP0=0, select bank0
  1277  014C  1303               	bcf	status, 6	;RP1=0, select bank0
  1278  014D  0841               	movf	(main@input),w
  1279  014E  3AFF               	xorlw	0FFh
  1280  014F  1D03               	skipz
  1281  0150  2952               	goto	u4631
  1282  0151  2953               	goto	u4630
  1283  0152                     u4631:
  1284  0152  2957               	goto	l8464
  1285  0153                     u4630:
  1286                           	line	271
  1287                           	
  1288  0153                     l8462:	
  1289                           ;IOTest.c: 270: {
  1290                           ;IOTest.c: 271: AutoDetectSensors();
  1291  0153  158A  27AB  118A   	fcall	_AutoDetectSensors
  1292                           	line	272
  1293                           ;IOTest.c: 272: }
  1294  0156  283C               	goto	l8412
  1295                           	line	273
  1296                           	
  1297  0157                     l3597:	
  1298                           	line	277
  1299                           	
  1300  0157                     l8464:	
  1301                           ;IOTest.c: 273: else
  1302                           ;IOTest.c: 274: {
  1303                           ;IOTest.c: 277: _delay((unsigned long)((10)*(8000000/4000.0)));
  1304                           	opt asmopt_off
  1305  0157  301A               movlw	26
  1306  0158  1283               	bcf	status, 5	;RP0=0, select bank0
  1307  0159  1303               	bcf	status, 6	;RP1=0, select bank0
  1308  015A  00BF               movwf	((??_main+0)+0+1),f
  1309  015B  30F8               	movlw	248
  1310  015C  00BE               movwf	((??_main+0)+0),f
  1311  015D                     u4687:
  1312  015D  0BBE               	decfsz	((??_main+0)+0),f
  1313  015E  295D               	goto	u4687
  1314  015F  0BBF               	decfsz	((??_main+0)+0+1),f
  1315  0160  295D               	goto	u4687
  1316  0161  0064               	clrwdt
  1317                           opt asmopt_on
  1318                           
  1319                           	line	278
  1320                           	
  1321  0162                     l8466:	
  1322                           ;IOTest.c: 278: onewire_sendpacket(0x00,0x10,0xFF);
  1323  0162  3010               	movlw	(010h)
  1324  0163  1283               	bcf	status, 5	;RP0=0, select bank0
  1325  0164  1303               	bcf	status, 6	;RP1=0, select bank0
  1326  0165  00BE               	movwf	(??_main+0)+0
  1327  0166  083E               	movf	(??_main+0)+0,w
  1328  0167  00A4               	movwf	(?_onewire_sendpacket)
  1329  0168  30FF               	movlw	(0FFh)
  1330  0169  00BF               	movwf	(??_main+1)+0
  1331  016A  083F               	movf	(??_main+1)+0,w
  1332  016B  00A5               	movwf	0+(?_onewire_sendpacket)+01h
  1333  016C  3000               	movlw	(0)
  1334  016D  158A  25CE  118A   	fcall	_onewire_sendpacket
  1335                           	line	279
  1336                           	
  1337  0170                     l8468:	
  1338                           ;IOTest.c: 279: _delay((unsigned long)((10)*(8000000/4000.0)));
  1339                           	opt asmopt_off
  1340  0170  301A               movlw	26
  1341  0171  1283               	bcf	status, 5	;RP0=0, select bank0
  1342  0172  1303               	bcf	status, 6	;RP1=0, select bank0
  1343  0173  00BF               movwf	((??_main+0)+0+1),f
  1344  0174  30F8               	movlw	248
  1345  0175  00BE               movwf	((??_main+0)+0),f
  1346  0176                     u4697:
  1347  0176  0BBE               	decfsz	((??_main+0)+0),f
  1348  0177  2976               	goto	u4697
  1349  0178  0BBF               	decfsz	((??_main+0)+0+1),f
  1350  0179  2976               	goto	u4697
  1351  017A  0064               	clrwdt
  1352                           opt asmopt_on
  1353                           
  1354                           	line	280
  1355                           ;IOTest.c: 280: onewire_sendpacket(0x00,0x10,0xFD);
  1356  017B  3010               	movlw	(010h)
  1357  017C  1283               	bcf	status, 5	;RP0=0, select bank0
  1358  017D  1303               	bcf	status, 6	;RP1=0, select bank0
  1359  017E  00BE               	movwf	(??_main+0)+0
  1360  017F  083E               	movf	(??_main+0)+0,w
  1361  0180  00A4               	movwf	(?_onewire_sendpacket)
  1362  0181  30FD               	movlw	(0FDh)
  1363  0182  00BF               	movwf	(??_main+1)+0
  1364  0183  083F               	movf	(??_main+1)+0,w
  1365  0184  00A5               	movwf	0+(?_onewire_sendpacket)+01h
  1366  0185  3000               	movlw	(0)
  1367  0186  158A  25CE  118A   	fcall	_onewire_sendpacket
  1368  0189  283C               	goto	l8412
  1369                           	line	281
  1370                           	
  1371  018A                     l3598:	
  1372  018A  283C               	goto	l8412
  1373                           	
  1374  018B                     l3596:	
  1375  018B  283C               	goto	l8412
  1376                           	
  1377  018C                     l3594:	
  1378  018C  283C               	goto	l8412
  1379                           	
  1380  018D                     l3592:	
  1381  018D  283C               	goto	l8412
  1382                           	
  1383  018E                     l3590:	
  1384  018E  283C               	goto	l8412
  1385                           	
  1386  018F                     l3588:	
  1387  018F  283C               	goto	l8412
  1388                           	
  1389  0190                     l3586:	
  1390  0190  283C               	goto	l8412
  1391                           	
  1392  0191                     l3584:	
  1393  0191  283C               	goto	l8412
  1394                           	
  1395  0192                     l3582:	
  1396  0192  283C               	goto	l8412
  1397                           	
  1398  0193                     l3580:	
  1399  0193  283C               	goto	l8412
  1400                           	
  1401  0194                     l3578:	
  1402  0194  283C               	goto	l8412
  1403                           	line	282
  1404                           	
  1405  0195                     l3599:	
  1406                           	line	217
  1407  0195  283C               	goto	l8412
  1408                           	
  1409  0196                     l3600:	
  1410                           	line	283
  1411                           	
  1412  0196                     l3601:	
  1413                           	global	start
  1414  0196  118A  2811         	ljmp	start
  1415                           	opt stack 0
  1416                           GLOBAL	__end_of_main
  1417  0198                     	__end_of_main:
  1418 ;; =============== function _main ends ============
  1419                           
  1420                           	signat	_main,88
  1421                           	global	_AutoDetectSensors
  1422                           psect	text761,local,class=CODE,delta=2
  1423                           global __ptext761
  1424  0FAB                     __ptext761:
  1425                           
  1426 ;; *************** function _AutoDetectSensors *****************
  1427 ;; Defined at:
  1428 ;;		line 64 in file "C:/Users/Dave/MPLABXProjects/IO Test.X/IOTest.c"
  1429 ;; Parameters:    Size  Location     Type
  1430 ;;		None
  1431 ;; Auto vars:     Size  Location     Type
  1432 ;;		None
  1433 ;; Return value:  Size  Location     Type
  1434 ;;		None               void
  1435 ;; Registers used:
  1436 ;;		wreg, status,2, status,0, btemp+1, pclath, cstack
  1437 ;; Tracked objects:
  1438 ;;		On entry : 0/0
  1439 ;;		On exit  : 0/0
  1440 ;;		Unchanged: 0/0
  1441 ;; Data sizes:     COMMON   BANK0   BANK1   BANK2
  1442 ;;      Params:         0       0       0       0
  1443 ;;      Locals:         0       0       0       0
  1444 ;;      Temps:          0       2       0       0
  1445 ;;      Totals:         0       2       0       0
  1446 ;;Total ram usage:        2 bytes
  1447 ;; Hardware stack levels used:    1
  1448 ;; Hardware stack levels required when called:    5
  1449 ;; This function calls:
  1450 ;;		_IdentifySensor
  1451 ;;		_onewire_sendpacket
  1452 ;; This function is called by:
  1453 ;;		_main
  1454 ;; This function uses a non-reentrant model
  1455 ;;
  1456                           psect	text761
  1457                           	file	"C:/Users/Dave/MPLABXProjects/IO Test.X/IOTest.c"
  1458                           	line	64
  1459                           	global	__size_of_AutoDetectSensors
  1460  0055                     	__size_of_AutoDetectSensors	equ	__end_of_AutoDetectSensors-_AutoDetectSensors
  1461                           	
  1462  0FAB                     _AutoDetectSensors:	
  1463                           	opt	stack 2
  1464                           ; Regs used in _AutoDetectSensors: [wreg+status,2+status,0+btemp+1+pclath+cstack]
  1465                           	line	65
  1466                           	
  1467  0FAB                     l8384:	
  1468                           ;IOTest.c: 65: Sensor1 = IdentifySensor(0b00000001);
  1469  0FAB  3001               	movlw	(01h)
  1470  0FAC  158A  2618  158A   	fcall	_IdentifySensor
  1471  0FAF  1283               	bcf	status, 5	;RP0=0, select bank0
  1472  0FB0  1303               	bcf	status, 6	;RP1=0, select bank0
  1473  0FB1  00B6               	movwf	(??_AutoDetectSensors+0)+0
  1474  0FB2  0836               	movf	(??_AutoDetectSensors+0)+0,w
  1475  0FB3  00C6               	movwf	(_Sensor1)
  1476                           	line	66
  1477                           ;IOTest.c: 66: Sensor2 = IdentifySensor(0b00000010);
  1478  0FB4  3002               	movlw	(02h)
  1479  0FB5  158A  2618  158A   	fcall	_IdentifySensor
  1480  0FB8  1283               	bcf	status, 5	;RP0=0, select bank0
  1481  0FB9  1303               	bcf	status, 6	;RP1=0, select bank0
  1482  0FBA  00B6               	movwf	(??_AutoDetectSensors+0)+0
  1483  0FBB  0836               	movf	(??_AutoDetectSensors+0)+0,w
  1484  0FBC  00C7               	movwf	(_Sensor2)
  1485                           	line	67
  1486                           ;IOTest.c: 67: Sensor3 = IdentifySensor(0b00000100);
  1487  0FBD  3004               	movlw	(04h)
  1488  0FBE  158A  2618  158A   	fcall	_IdentifySensor
  1489  0FC1  1283               	bcf	status, 5	;RP0=0, select bank0
  1490  0FC2  1303               	bcf	status, 6	;RP1=0, select bank0
  1491  0FC3  00B6               	movwf	(??_AutoDetectSensors+0)+0
  1492  0FC4  0836               	movf	(??_AutoDetectSensors+0)+0,w
  1493  0FC5  00C8               	movwf	(_Sensor3)
  1494                           	line	68
  1495                           ;IOTest.c: 68: Sensor4 = IdentifySensor(0b00001000);
  1496  0FC6  3008               	movlw	(08h)
  1497  0FC7  158A  2618  158A   	fcall	_IdentifySensor
  1498  0FCA  1283               	bcf	status, 5	;RP0=0, select bank0
  1499  0FCB  1303               	bcf	status, 6	;RP1=0, select bank0
  1500  0FCC  00B6               	movwf	(??_AutoDetectSensors+0)+0
  1501  0FCD  0836               	movf	(??_AutoDetectSensors+0)+0,w
  1502  0FCE  00C9               	movwf	(_Sensor4)
  1503                           	line	72
  1504                           	
  1505  0FCF                     l8386:	
  1506                           ;IOTest.c: 72: _delay((unsigned long)((10)*(8000000/4000.0)));
  1507                           	opt asmopt_off
  1508  0FCF  301A               movlw	26
  1509  0FD0  00B7               movwf	((??_AutoDetectSensors+0)+0+1),f
  1510  0FD1  30F8               	movlw	248
  1511  0FD2  00B6               movwf	((??_AutoDetectSensors+0)+0),f
  1512  0FD3                     u4707:
  1513  0FD3  0BB6               	decfsz	((??_AutoDetectSensors+0)+0),f
  1514  0FD4  2FD3               	goto	u4707
  1515  0FD5  0BB7               	decfsz	((??_AutoDetectSensors+0)+0+1),f
  1516  0FD6  2FD3               	goto	u4707
  1517  0FD7  0064               	clrwdt
  1518                           opt asmopt_on
  1519                           
  1520                           	line	73
  1521                           	
  1522  0FD8                     l8388:	
  1523                           ;IOTest.c: 73: onewire_sendpacket(0x00,0x10,0xFF);
  1524  0FD8  3010               	movlw	(010h)
  1525  0FD9  1283               	bcf	status, 5	;RP0=0, select bank0
  1526  0FDA  1303               	bcf	status, 6	;RP1=0, select bank0
  1527  0FDB  00B6               	movwf	(??_AutoDetectSensors+0)+0
  1528  0FDC  0836               	movf	(??_AutoDetectSensors+0)+0,w
  1529  0FDD  00A4               	movwf	(?_onewire_sendpacket)
  1530  0FDE  30FF               	movlw	(0FFh)
  1531  0FDF  00B7               	movwf	(??_AutoDetectSensors+1)+0
  1532  0FE0  0837               	movf	(??_AutoDetectSensors+1)+0,w
  1533  0FE1  00A5               	movwf	0+(?_onewire_sendpacket)+01h
  1534  0FE2  3000               	movlw	(0)
  1535  0FE3  158A  25CE  158A   	fcall	_onewire_sendpacket
  1536                           	line	74
  1537                           ;IOTest.c: 74: _delay((unsigned long)((10)*(8000000/4000.0)));
  1538                           	opt asmopt_off
  1539  0FE6  301A               movlw	26
  1540  0FE7  1283               	bcf	status, 5	;RP0=0, select bank0
  1541  0FE8  1303               	bcf	status, 6	;RP1=0, select bank0
  1542  0FE9  00B7               movwf	((??_AutoDetectSensors+0)+0+1),f
  1543  0FEA  30F8               	movlw	248
  1544  0FEB  00B6               movwf	((??_AutoDetectSensors+0)+0),f
  1545  0FEC                     u4717:
  1546  0FEC  0BB6               	decfsz	((??_AutoDetectSensors+0)+0),f
  1547  0FED  2FEC               	goto	u4717
  1548  0FEE  0BB7               	decfsz	((??_AutoDetectSensors+0)+0+1),f
  1549  0FEF  2FEC               	goto	u4717
  1550  0FF0  0064               	clrwdt
  1551                           opt asmopt_on
  1552                           
  1553                           	line	75
  1554                           	
  1555  0FF1                     l8390:	
  1556                           ;IOTest.c: 75: onewire_sendpacket(0x00,0x10,0xF9);
  1557  0FF1  3010               	movlw	(010h)
  1558  0FF2  1283               	bcf	status, 5	;RP0=0, select bank0
  1559  0FF3  1303               	bcf	status, 6	;RP1=0, select bank0
  1560  0FF4  00B6               	movwf	(??_AutoDetectSensors+0)+0
  1561  0FF5  0836               	movf	(??_AutoDetectSensors+0)+0,w
  1562  0FF6  00A4               	movwf	(?_onewire_sendpacket)
  1563  0FF7  30F9               	movlw	(0F9h)
  1564  0FF8  00B7               	movwf	(??_AutoDetectSensors+1)+0
  1565  0FF9  0837               	movf	(??_AutoDetectSensors+1)+0,w
  1566  0FFA  00A5               	movwf	0+(?_onewire_sendpacket)+01h
  1567  0FFB  3000               	movlw	(0)
  1568  0FFC  158A  25CE  158A   	fcall	_onewire_sendpacket
  1569                           	line	77
  1570                           	
  1571  0FFF                     l3552:	
  1572  0FFF  0008               	return
  1573                           	opt stack 0
  1574                           GLOBAL	__end_of_AutoDetectSensors
  1575  1000                     	__end_of_AutoDetectSensors:
  1576 ;; =============== function _AutoDetectSensors ends ============
  1577                           
  1578                           	signat	_AutoDetectSensors,88
  1579                           	global	_ReturnHumidity
  1580                           psect	text762,local,class=CODE,delta=2
  1581                           global __ptext762
  1582  043A                     __ptext762:
  1583                           
  1584 ;; *************** function _ReturnHumidity *****************
  1585 ;; Defined at:
  1586 ;;		line 135 in file "C:/Users/Dave/MPLABXProjects/IO Test.X/IOTest.c"
  1587 ;; Parameters:    Size  Location     Type
  1588 ;;  SensorType      2   21[BANK0 ] int 
  1589 ;;  bitmap          1   23[BANK0 ] unsigned char 
  1590 ;; Auto vars:     Size  Location     Type
  1591 ;;  humidity        2   26[BANK0 ] int 
  1592 ;; Return value:  Size  Location     Type
  1593 ;;		None               void
  1594 ;; Registers used:
  1595 ;;		wreg, status,2, status,0, btemp+1, pclath, cstack
  1596 ;; Tracked objects:
  1597 ;;		On entry : 0/0
  1598 ;;		On exit  : 0/0
  1599 ;;		Unchanged: 0/0
  1600 ;; Data sizes:     COMMON   BANK0   BANK1   BANK2
  1601 ;;      Params:         0       3       0       0
  1602 ;;      Locals:         0       2       0       0
  1603 ;;      Temps:          0       2       0       0
  1604 ;;      Totals:         0       7       0       0
  1605 ;;Total ram usage:        7 bytes
  1606 ;; Hardware stack levels used:    1
  1607 ;; Hardware stack levels required when called:    4
  1608 ;; This function calls:
  1609 ;;		_onewire_sendpacket
  1610 ;;		_GetHumidity
  1611 ;; This function is called by:
  1612 ;;		_main
  1613 ;; This function uses a non-reentrant model
  1614 ;;
  1615                           psect	text762
  1616                           	file	"C:/Users/Dave/MPLABXProjects/IO Test.X/IOTest.c"
  1617                           	line	135
  1618                           	global	__size_of_ReturnHumidity
  1619  0106                     	__size_of_ReturnHumidity	equ	__end_of_ReturnHumidity-_ReturnHumidity
  1620                           	
  1621  043A                     _ReturnHumidity:	
  1622                           	opt	stack 3
  1623                           ; Regs used in _ReturnHumidity: [wreg+status,2+status,0+btemp+1+pclath+cstack]
  1624                           	line	137
  1625                           	
  1626  043A                     l8348:	
  1627                           ;IOTest.c: 137: if (SensorType == 0)
  1628  043A  1283               	bcf	status, 5	;RP0=0, select bank0
  1629  043B  1303               	bcf	status, 6	;RP1=0, select bank0
  1630  043C  0836               	movf	((ReturnHumidity@SensorType+1)),w
  1631  043D  0435               	iorwf	((ReturnHumidity@SensorType)),w
  1632  043E  1D03               	skipz
  1633  043F  2C41               	goto	u4491
  1634  0440  2C42               	goto	u4490
  1635  0441                     u4491:
  1636  0441  2C73               	goto	l8356
  1637  0442                     u4490:
  1638                           	line	141
  1639                           	
  1640  0442                     l8350:	
  1641                           ;IOTest.c: 138: {
  1642                           ;IOTest.c: 141: _delay((unsigned long)((10)*(8000000/4000.0)));
  1643                           	opt asmopt_off
  1644  0442  301A               movlw	26
  1645  0443  00B9               movwf	((??_ReturnHumidity+0)+0+1),f
  1646  0444  30F8               	movlw	248
  1647  0445  00B8               movwf	((??_ReturnHumidity+0)+0),f
  1648  0446                     u4727:
  1649  0446  0BB8               	decfsz	((??_ReturnHumidity+0)+0),f
  1650  0447  2C46               	goto	u4727
  1651  0448  0BB9               	decfsz	((??_ReturnHumidity+0)+0+1),f
  1652  0449  2C46               	goto	u4727
  1653  044A  0064               	clrwdt
  1654                           opt asmopt_on
  1655                           
  1656                           	line	142
  1657                           	
  1658  044B                     l8352:	
  1659                           ;IOTest.c: 142: onewire_sendpacket(0x00,0x10,0xFF);
  1660  044B  3010               	movlw	(010h)
  1661  044C  1283               	bcf	status, 5	;RP0=0, select bank0
  1662  044D  1303               	bcf	status, 6	;RP1=0, select bank0
  1663  044E  00B8               	movwf	(??_ReturnHumidity+0)+0
  1664  044F  0838               	movf	(??_ReturnHumidity+0)+0,w
  1665  0450  00A4               	movwf	(?_onewire_sendpacket)
  1666  0451  30FF               	movlw	(0FFh)
  1667  0452  00B9               	movwf	(??_ReturnHumidity+1)+0
  1668  0453  0839               	movf	(??_ReturnHumidity+1)+0,w
  1669  0454  00A5               	movwf	0+(?_onewire_sendpacket)+01h
  1670  0455  3000               	movlw	(0)
  1671  0456  158A  25CE  118A   	fcall	_onewire_sendpacket
  1672                           	line	143
  1673                           	
  1674  0459                     l8354:	
  1675                           ;IOTest.c: 143: _delay((unsigned long)((10)*(8000000/4000.0)));
  1676                           	opt asmopt_off
  1677  0459  301A               movlw	26
  1678  045A  1283               	bcf	status, 5	;RP0=0, select bank0
  1679  045B  1303               	bcf	status, 6	;RP1=0, select bank0
  1680  045C  00B9               movwf	((??_ReturnHumidity+0)+0+1),f
  1681  045D  30F8               	movlw	248
  1682  045E  00B8               movwf	((??_ReturnHumidity+0)+0),f
  1683  045F                     u4737:
  1684  045F  0BB8               	decfsz	((??_ReturnHumidity+0)+0),f
  1685  0460  2C5F               	goto	u4737
  1686  0461  0BB9               	decfsz	((??_ReturnHumidity+0)+0+1),f
  1687  0462  2C5F               	goto	u4737
  1688  0463  0064               	clrwdt
  1689                           opt asmopt_on
  1690                           
  1691                           	line	144
  1692                           ;IOTest.c: 144: onewire_sendpacket(0x00,0x10,0xFB);
  1693  0464  3010               	movlw	(010h)
  1694  0465  1283               	bcf	status, 5	;RP0=0, select bank0
  1695  0466  1303               	bcf	status, 6	;RP1=0, select bank0
  1696  0467  00B8               	movwf	(??_ReturnHumidity+0)+0
  1697  0468  0838               	movf	(??_ReturnHumidity+0)+0,w
  1698  0469  00A4               	movwf	(?_onewire_sendpacket)
  1699  046A  30FB               	movlw	(0FBh)
  1700  046B  00B9               	movwf	(??_ReturnHumidity+1)+0
  1701  046C  0839               	movf	(??_ReturnHumidity+1)+0,w
  1702  046D  00A5               	movwf	0+(?_onewire_sendpacket)+01h
  1703  046E  3000               	movlw	(0)
  1704  046F  158A  25CE  118A   	fcall	_onewire_sendpacket
  1705                           	line	145
  1706                           ;IOTest.c: 145: }
  1707  0472  2D3F               	goto	l3573
  1708                           	line	146
  1709                           	
  1710  0473                     l3566:	
  1711                           	
  1712  0473                     l8356:	
  1713                           ;IOTest.c: 146: else if (SensorType == 1)
  1714  0473  3001               	movlw	01h
  1715  0474  1283               	bcf	status, 5	;RP0=0, select bank0
  1716  0475  1303               	bcf	status, 6	;RP1=0, select bank0
  1717  0476  0635               	xorwf	(ReturnHumidity@SensorType),w
  1718  0477  0436               	iorwf	(ReturnHumidity@SensorType+1),w
  1719  0478  1D03               	skipz
  1720  0479  2C7B               	goto	u4501
  1721  047A  2C7C               	goto	u4500
  1722  047B                     u4501:
  1723  047B  2CD0               	goto	l8370
  1724  047C                     u4500:
  1725                           	line	148
  1726                           	
  1727  047C                     l8358:	
  1728                           ;IOTest.c: 147: {
  1729                           ;IOTest.c: 148: int humidity = GetHumidity(bitmap);
  1730  047C  0837               	movf	(ReturnHumidity@bitmap),w
  1731  047D  158A  26BF  118A   	fcall	_GetHumidity
  1732  0480  0876               	movf	(1+(?_GetHumidity)),w
  1733  0481  1283               	bcf	status, 5	;RP0=0, select bank0
  1734  0482  1303               	bcf	status, 6	;RP1=0, select bank0
  1735  0483  01BB               	clrf	(ReturnHumidity@humidity+1)
  1736  0484  07BB               	addwf	(ReturnHumidity@humidity+1)
  1737  0485  0875               	movf	(0+(?_GetHumidity)),w
  1738  0486  01BA               	clrf	(ReturnHumidity@humidity)
  1739  0487  07BA               	addwf	(ReturnHumidity@humidity)
  1740                           
  1741                           	line	150
  1742                           	
  1743  0488                     l8360:	
  1744                           ;IOTest.c: 150: if (humidity == 0xFFFE)
  1745  0488  30FF               	movlw	high(0FFFEh)
  1746  0489  063B               	xorwf	(ReturnHumidity@humidity+1),w
  1747  048A  1D03               	skipz
  1748  048B  2C8E               	goto	u4515
  1749  048C  30FE               	movlw	low(0FFFEh)
  1750  048D  063A               	xorwf	(ReturnHumidity@humidity),w
  1751  048E                     u4515:
  1752                           
  1753  048E  1D03               	skipz
  1754  048F  2C91               	goto	u4511
  1755  0490  2C92               	goto	u4510
  1756  0491                     u4511:
  1757  0491  2C9F               	goto	l8364
  1758  0492                     u4510:
  1759                           	line	152
  1760                           	
  1761  0492                     l8362:	
  1762                           ;IOTest.c: 151: {
  1763                           ;IOTest.c: 152: humidity = GetHumidity(bitmap);
  1764  0492  0837               	movf	(ReturnHumidity@bitmap),w
  1765  0493  158A  26BF  118A   	fcall	_GetHumidity
  1766  0496  0876               	movf	(1+(?_GetHumidity)),w
  1767  0497  1283               	bcf	status, 5	;RP0=0, select bank0
  1768  0498  1303               	bcf	status, 6	;RP1=0, select bank0
  1769  0499  01BB               	clrf	(ReturnHumidity@humidity+1)
  1770  049A  07BB               	addwf	(ReturnHumidity@humidity+1)
  1771  049B  0875               	movf	(0+(?_GetHumidity)),w
  1772  049C  01BA               	clrf	(ReturnHumidity@humidity)
  1773  049D  07BA               	addwf	(ReturnHumidity@humidity)
  1774                           
  1775  049E  2C9F               	goto	l8364
  1776                           	line	153
  1777                           	
  1778  049F                     l3569:	
  1779                           	line	157
  1780                           	
  1781  049F                     l8364:	
  1782                           ;IOTest.c: 153: }
  1783                           ;IOTest.c: 157: _delay((unsigned long)((10)*(8000000/4000.0)));
  1784                           	opt asmopt_off
  1785  049F  301A               movlw	26
  1786  04A0  00B9               movwf	((??_ReturnHumidity+0)+0+1),f
  1787  04A1  30F8               	movlw	248
  1788  04A2  00B8               movwf	((??_ReturnHumidity+0)+0),f
  1789  04A3                     u4747:
  1790  04A3  0BB8               	decfsz	((??_ReturnHumidity+0)+0),f
  1791  04A4  2CA3               	goto	u4747
  1792  04A5  0BB9               	decfsz	((??_ReturnHumidity+0)+0+1),f
  1793  04A6  2CA3               	goto	u4747
  1794  04A7  0064               	clrwdt
  1795                           opt asmopt_on
  1796                           
  1797                           	line	158
  1798                           	
  1799  04A8                     l8366:	
  1800                           ;IOTest.c: 158: onewire_sendpacket(0x00,0x10,humidity >> 8);
  1801  04A8  3010               	movlw	(010h)
  1802  04A9  1283               	bcf	status, 5	;RP0=0, select bank0
  1803  04AA  1303               	bcf	status, 6	;RP1=0, select bank0
  1804  04AB  00B8               	movwf	(??_ReturnHumidity+0)+0
  1805  04AC  0838               	movf	(??_ReturnHumidity+0)+0,w
  1806  04AD  00A4               	movwf	(?_onewire_sendpacket)
  1807  04AE  083B               	movf	(ReturnHumidity@humidity+1),w
  1808  04AF  00B9               	movwf	(??_ReturnHumidity+1)+0
  1809  04B0  0839               	movf	(??_ReturnHumidity+1)+0,w
  1810  04B1  00A5               	movwf	0+(?_onewire_sendpacket)+01h
  1811  04B2  3000               	movlw	(0)
  1812  04B3  158A  25CE  118A   	fcall	_onewire_sendpacket
  1813                           	line	159
  1814                           ;IOTest.c: 159: _delay((unsigned long)((10)*(8000000/4000.0)));
  1815                           	opt asmopt_off
  1816  04B6  301A               movlw	26
  1817  04B7  1283               	bcf	status, 5	;RP0=0, select bank0
  1818  04B8  1303               	bcf	status, 6	;RP1=0, select bank0
  1819  04B9  00B9               movwf	((??_ReturnHumidity+0)+0+1),f
  1820  04BA  30F8               	movlw	248
  1821  04BB  00B8               movwf	((??_ReturnHumidity+0)+0),f
  1822  04BC                     u4757:
  1823  04BC  0BB8               	decfsz	((??_ReturnHumidity+0)+0),f
  1824  04BD  2CBC               	goto	u4757
  1825  04BE  0BB9               	decfsz	((??_ReturnHumidity+0)+0+1),f
  1826  04BF  2CBC               	goto	u4757
  1827  04C0  0064               	clrwdt
  1828                           opt asmopt_on
  1829                           
  1830                           	line	160
  1831                           	
  1832  04C1                     l8368:	
  1833                           ;IOTest.c: 160: onewire_sendpacket(0x00,0x10,humidity);
  1834  04C1  3010               	movlw	(010h)
  1835  04C2  1283               	bcf	status, 5	;RP0=0, select bank0
  1836  04C3  1303               	bcf	status, 6	;RP1=0, select bank0
  1837  04C4  00B8               	movwf	(??_ReturnHumidity+0)+0
  1838  04C5  0838               	movf	(??_ReturnHumidity+0)+0,w
  1839  04C6  00A4               	movwf	(?_onewire_sendpacket)
  1840  04C7  083A               	movf	(ReturnHumidity@humidity),w
  1841  04C8  00B9               	movwf	(??_ReturnHumidity+1)+0
  1842  04C9  0839               	movf	(??_ReturnHumidity+1)+0,w
  1843  04CA  00A5               	movwf	0+(?_onewire_sendpacket)+01h
  1844  04CB  3000               	movlw	(0)
  1845  04CC  158A  25CE  118A   	fcall	_onewire_sendpacket
  1846                           	line	161
  1847                           ;IOTest.c: 161: }
  1848  04CF  2D3F               	goto	l3573
  1849                           	line	162
  1850                           	
  1851  04D0                     l3568:	
  1852                           	
  1853  04D0                     l8370:	
  1854                           ;IOTest.c: 162: else if (SensorType == 2)
  1855  04D0  3002               	movlw	02h
  1856  04D1  1283               	bcf	status, 5	;RP0=0, select bank0
  1857  04D2  1303               	bcf	status, 6	;RP1=0, select bank0
  1858  04D3  0635               	xorwf	(ReturnHumidity@SensorType),w
  1859  04D4  0436               	iorwf	(ReturnHumidity@SensorType+1),w
  1860  04D5  1D03               	skipz
  1861  04D6  2CD8               	goto	u4521
  1862  04D7  2CD9               	goto	u4520
  1863  04D8                     u4521:
  1864  04D8  2D0A               	goto	l8378
  1865  04D9                     u4520:
  1866                           	line	166
  1867                           	
  1868  04D9                     l8372:	
  1869                           ;IOTest.c: 163: {
  1870                           ;IOTest.c: 166: _delay((unsigned long)((10)*(8000000/4000.0)));
  1871                           	opt asmopt_off
  1872  04D9  301A               movlw	26
  1873  04DA  00B9               movwf	((??_ReturnHumidity+0)+0+1),f
  1874  04DB  30F8               	movlw	248
  1875  04DC  00B8               movwf	((??_ReturnHumidity+0)+0),f
  1876  04DD                     u4767:
  1877  04DD  0BB8               	decfsz	((??_ReturnHumidity+0)+0),f
  1878  04DE  2CDD               	goto	u4767
  1879  04DF  0BB9               	decfsz	((??_ReturnHumidity+0)+0+1),f
  1880  04E0  2CDD               	goto	u4767
  1881  04E1  0064               	clrwdt
  1882                           opt asmopt_on
  1883                           
  1884                           	line	167
  1885                           	
  1886  04E2                     l8374:	
  1887                           ;IOTest.c: 167: onewire_sendpacket(0x00,0x10,0xFF);
  1888  04E2  3010               	movlw	(010h)
  1889  04E3  1283               	bcf	status, 5	;RP0=0, select bank0
  1890  04E4  1303               	bcf	status, 6	;RP1=0, select bank0
  1891  04E5  00B8               	movwf	(??_ReturnHumidity+0)+0
  1892  04E6  0838               	movf	(??_ReturnHumidity+0)+0,w
  1893  04E7  00A4               	movwf	(?_onewire_sendpacket)
  1894  04E8  30FF               	movlw	(0FFh)
  1895  04E9  00B9               	movwf	(??_ReturnHumidity+1)+0
  1896  04EA  0839               	movf	(??_ReturnHumidity+1)+0,w
  1897  04EB  00A5               	movwf	0+(?_onewire_sendpacket)+01h
  1898  04EC  3000               	movlw	(0)
  1899  04ED  158A  25CE  118A   	fcall	_onewire_sendpacket
  1900                           	line	168
  1901                           	
  1902  04F0                     l8376:	
  1903                           ;IOTest.c: 168: _delay((unsigned long)((10)*(8000000/4000.0)));
  1904                           	opt asmopt_off
  1905  04F0  301A               movlw	26
  1906  04F1  1283               	bcf	status, 5	;RP0=0, select bank0
  1907  04F2  1303               	bcf	status, 6	;RP1=0, select bank0
  1908  04F3  00B9               movwf	((??_ReturnHumidity+0)+0+1),f
  1909  04F4  30F8               	movlw	248
  1910  04F5  00B8               movwf	((??_ReturnHumidity+0)+0),f
  1911  04F6                     u4777:
  1912  04F6  0BB8               	decfsz	((??_ReturnHumidity+0)+0),f
  1913  04F7  2CF6               	goto	u4777
  1914  04F8  0BB9               	decfsz	((??_ReturnHumidity+0)+0+1),f
  1915  04F9  2CF6               	goto	u4777
  1916  04FA  0064               	clrwdt
  1917                           opt asmopt_on
  1918                           
  1919                           	line	169
  1920                           ;IOTest.c: 169: onewire_sendpacket(0x00,0x10,0xFC);
  1921  04FB  3010               	movlw	(010h)
  1922  04FC  1283               	bcf	status, 5	;RP0=0, select bank0
  1923  04FD  1303               	bcf	status, 6	;RP1=0, select bank0
  1924  04FE  00B8               	movwf	(??_ReturnHumidity+0)+0
  1925  04FF  0838               	movf	(??_ReturnHumidity+0)+0,w
  1926  0500  00A4               	movwf	(?_onewire_sendpacket)
  1927  0501  30FC               	movlw	(0FCh)
  1928  0502  00B9               	movwf	(??_ReturnHumidity+1)+0
  1929  0503  0839               	movf	(??_ReturnHumidity+1)+0,w
  1930  0504  00A5               	movwf	0+(?_onewire_sendpacket)+01h
  1931  0505  3000               	movlw	(0)
  1932  0506  158A  25CE  118A   	fcall	_onewire_sendpacket
  1933                           	line	170
  1934                           ;IOTest.c: 170: }
  1935  0509  2D3F               	goto	l3573
  1936                           	line	171
  1937                           	
  1938  050A                     l3571:	
  1939                           	line	175
  1940                           	
  1941  050A                     l8378:	
  1942                           ;IOTest.c: 171: else
  1943                           ;IOTest.c: 172: {
  1944                           ;IOTest.c: 175: _delay((unsigned long)((10)*(8000000/4000.0)));
  1945                           	opt asmopt_off
  1946  050A  301A               movlw	26
  1947  050B  1283               	bcf	status, 5	;RP0=0, select bank0
  1948  050C  1303               	bcf	status, 6	;RP1=0, select bank0
  1949  050D  00B9               movwf	((??_ReturnHumidity+0)+0+1),f
  1950  050E  30F8               	movlw	248
  1951  050F  00B8               movwf	((??_ReturnHumidity+0)+0),f
  1952  0510                     u4787:
  1953  0510  0BB8               	decfsz	((??_ReturnHumidity+0)+0),f
  1954  0511  2D10               	goto	u4787
  1955  0512  0BB9               	decfsz	((??_ReturnHumidity+0)+0+1),f
  1956  0513  2D10               	goto	u4787
  1957  0514  0064               	clrwdt
  1958                           opt asmopt_on
  1959                           
  1960                           	line	176
  1961                           	
  1962  0515                     l8380:	
  1963                           ;IOTest.c: 176: onewire_sendpacket(0x00,0x10,0xFF);
  1964  0515  3010               	movlw	(010h)
  1965  0516  1283               	bcf	status, 5	;RP0=0, select bank0
  1966  0517  1303               	bcf	status, 6	;RP1=0, select bank0
  1967  0518  00B8               	movwf	(??_ReturnHumidity+0)+0
  1968  0519  0838               	movf	(??_ReturnHumidity+0)+0,w
  1969  051A  00A4               	movwf	(?_onewire_sendpacket)
  1970  051B  30FF               	movlw	(0FFh)
  1971  051C  00B9               	movwf	(??_ReturnHumidity+1)+0
  1972  051D  0839               	movf	(??_ReturnHumidity+1)+0,w
  1973  051E  00A5               	movwf	0+(?_onewire_sendpacket)+01h
  1974  051F  3000               	movlw	(0)
  1975  0520  158A  25CE  118A   	fcall	_onewire_sendpacket
  1976                           	line	177
  1977                           	
  1978  0523                     l8382:	
  1979                           ;IOTest.c: 177: _delay((unsigned long)((10)*(8000000/4000.0)));
  1980                           	opt asmopt_off
  1981  0523  301A               movlw	26
  1982  0524  1283               	bcf	status, 5	;RP0=0, select bank0
  1983  0525  1303               	bcf	status, 6	;RP1=0, select bank0
  1984  0526  00B9               movwf	((??_ReturnHumidity+0)+0+1),f
  1985  0527  30F8               	movlw	248
  1986  0528  00B8               movwf	((??_ReturnHumidity+0)+0),f
  1987  0529                     u4797:
  1988  0529  0BB8               	decfsz	((??_ReturnHumidity+0)+0),f
  1989  052A  2D29               	goto	u4797
  1990  052B  0BB9               	decfsz	((??_ReturnHumidity+0)+0+1),f
  1991  052C  2D29               	goto	u4797
  1992  052D  0064               	clrwdt
  1993                           opt asmopt_on
  1994                           
  1995                           	line	178
  1996                           ;IOTest.c: 178: onewire_sendpacket(0x00,0x10,0xFA);
  1997  052E  3010               	movlw	(010h)
  1998  052F  1283               	bcf	status, 5	;RP0=0, select bank0
  1999  0530  1303               	bcf	status, 6	;RP1=0, select bank0
  2000  0531  00B8               	movwf	(??_ReturnHumidity+0)+0
  2001  0532  0838               	movf	(??_ReturnHumidity+0)+0,w
  2002  0533  00A4               	movwf	(?_onewire_sendpacket)
  2003  0534  30FA               	movlw	(0FAh)
  2004  0535  00B9               	movwf	(??_ReturnHumidity+1)+0
  2005  0536  0839               	movf	(??_ReturnHumidity+1)+0,w
  2006  0537  00A5               	movwf	0+(?_onewire_sendpacket)+01h
  2007  0538  3000               	movlw	(0)
  2008  0539  158A  25CE  118A   	fcall	_onewire_sendpacket
  2009  053C  2D3F               	goto	l3573
  2010                           	line	179
  2011                           	
  2012  053D                     l3572:	
  2013  053D  2D3F               	goto	l3573
  2014                           	
  2015  053E                     l3570:	
  2016  053E  2D3F               	goto	l3573
  2017                           	
  2018  053F                     l3567:	
  2019                           	line	180
  2020                           	
  2021  053F                     l3573:	
  2022  053F  0008               	return
  2023                           	opt stack 0
  2024                           GLOBAL	__end_of_ReturnHumidity
  2025  0540                     	__end_of_ReturnHumidity:
  2026 ;; =============== function _ReturnHumidity ends ============
  2027                           
  2028                           	signat	_ReturnHumidity,8312
  2029                           	global	_ReturnTemperature
  2030                           psect	text763,local,class=CODE,delta=2
  2031                           global __ptext763
  2032  0311                     __ptext763:
  2033                           
  2034 ;; *************** function _ReturnTemperature *****************
  2035 ;; Defined at:
  2036 ;;		line 80 in file "C:/Users/Dave/MPLABXProjects/IO Test.X/IOTest.c"
  2037 ;; Parameters:    Size  Location     Type
  2038 ;;  SensorType      2   21[BANK0 ] int 
  2039 ;;  bitmap          1   23[BANK0 ] unsigned char 
  2040 ;; Auto vars:     Size  Location     Type
  2041 ;;  temperature     2   28[BANK0 ] int 
  2042 ;;  temperature     2   26[BANK0 ] int 
  2043 ;; Return value:  Size  Location     Type
  2044 ;;		None               void
  2045 ;; Registers used:
  2046 ;;		wreg, status,2, status,0, btemp+1, pclath, cstack
  2047 ;; Tracked objects:
  2048 ;;		On entry : 0/0
  2049 ;;		On exit  : 0/0
  2050 ;;		Unchanged: 0/0
  2051 ;; Data sizes:     COMMON   BANK0   BANK1   BANK2
  2052 ;;      Params:         0       3       0       0
  2053 ;;      Locals:         0       4       0       0
  2054 ;;      Temps:          0       2       0       0
  2055 ;;      Totals:         0       9       0       0
  2056 ;;Total ram usage:        9 bytes
  2057 ;; Hardware stack levels used:    1
  2058 ;; Hardware stack levels required when called:    4
  2059 ;; This function calls:
  2060 ;;		_onewire_sendpacket
  2061 ;;		_GetTemperature
  2062 ;;		_ds_gettemperature
  2063 ;; This function is called by:
  2064 ;;		_main
  2065 ;; This function uses a non-reentrant model
  2066 ;;
  2067                           psect	text763
  2068                           	file	"C:/Users/Dave/MPLABXProjects/IO Test.X/IOTest.c"
  2069                           	line	80
  2070                           	global	__size_of_ReturnTemperature
  2071  0129                     	__size_of_ReturnTemperature	equ	__end_of_ReturnTemperature-_ReturnTemperature
  2072                           	
  2073  0311                     _ReturnTemperature:	
  2074                           	opt	stack 3
  2075                           ; Regs used in _ReturnTemperature: [wreg+status,2+status,0+btemp+1+pclath+cstack]
  2076                           	line	81
  2077                           	
  2078  0311                     l8306:	
  2079                           ;IOTest.c: 81: if (SensorType == 0)
  2080  0311  1283               	bcf	status, 5	;RP0=0, select bank0
  2081  0312  1303               	bcf	status, 6	;RP1=0, select bank0
  2082  0313  0836               	movf	((ReturnTemperature@SensorType+1)),w
  2083  0314  0435               	iorwf	((ReturnTemperature@SensorType)),w
  2084  0315  1D03               	skipz
  2085  0316  2B18               	goto	u4441
  2086  0317  2B19               	goto	u4440
  2087  0318                     u4441:
  2088  0318  2B4A               	goto	l8314
  2089  0319                     u4440:
  2090                           	line	85
  2091                           	
  2092  0319                     l8308:	
  2093                           ;IOTest.c: 82: {
  2094                           ;IOTest.c: 85: _delay((unsigned long)((10)*(8000000/4000.0)));
  2095                           	opt asmopt_off
  2096  0319  301A               movlw	26
  2097  031A  00B9               movwf	((??_ReturnTemperature+0)+0+1),f
  2098  031B  30F8               	movlw	248
  2099  031C  00B8               movwf	((??_ReturnTemperature+0)+0),f
  2100  031D                     u4807:
  2101  031D  0BB8               	decfsz	((??_ReturnTemperature+0)+0),f
  2102  031E  2B1D               	goto	u4807
  2103  031F  0BB9               	decfsz	((??_ReturnTemperature+0)+0+1),f
  2104  0320  2B1D               	goto	u4807
  2105  0321  0064               	clrwdt
  2106                           opt asmopt_on
  2107                           
  2108                           	line	86
  2109                           	
  2110  0322                     l8310:	
  2111                           ;IOTest.c: 86: onewire_sendpacket(0x00,0x10,0xFF);
  2112  0322  3010               	movlw	(010h)
  2113  0323  1283               	bcf	status, 5	;RP0=0, select bank0
  2114  0324  1303               	bcf	status, 6	;RP1=0, select bank0
  2115  0325  00B8               	movwf	(??_ReturnTemperature+0)+0
  2116  0326  0838               	movf	(??_ReturnTemperature+0)+0,w
  2117  0327  00A4               	movwf	(?_onewire_sendpacket)
  2118  0328  30FF               	movlw	(0FFh)
  2119  0329  00B9               	movwf	(??_ReturnTemperature+1)+0
  2120  032A  0839               	movf	(??_ReturnTemperature+1)+0,w
  2121  032B  00A5               	movwf	0+(?_onewire_sendpacket)+01h
  2122  032C  3000               	movlw	(0)
  2123  032D  158A  25CE  118A   	fcall	_onewire_sendpacket
  2124                           	line	87
  2125                           	
  2126  0330                     l8312:	
  2127                           ;IOTest.c: 87: _delay((unsigned long)((10)*(8000000/4000.0)));
  2128                           	opt asmopt_off
  2129  0330  301A               movlw	26
  2130  0331  1283               	bcf	status, 5	;RP0=0, select bank0
  2131  0332  1303               	bcf	status, 6	;RP1=0, select bank0
  2132  0333  00B9               movwf	((??_ReturnTemperature+0)+0+1),f
  2133  0334  30F8               	movlw	248
  2134  0335  00B8               movwf	((??_ReturnTemperature+0)+0),f
  2135  0336                     u4817:
  2136  0336  0BB8               	decfsz	((??_ReturnTemperature+0)+0),f
  2137  0337  2B36               	goto	u4817
  2138  0338  0BB9               	decfsz	((??_ReturnTemperature+0)+0+1),f
  2139  0339  2B36               	goto	u4817
  2140  033A  0064               	clrwdt
  2141                           opt asmopt_on
  2142                           
  2143                           	line	88
  2144                           ;IOTest.c: 88: onewire_sendpacket(0x00,0x10,0xFB);
  2145  033B  3010               	movlw	(010h)
  2146  033C  1283               	bcf	status, 5	;RP0=0, select bank0
  2147  033D  1303               	bcf	status, 6	;RP1=0, select bank0
  2148  033E  00B8               	movwf	(??_ReturnTemperature+0)+0
  2149  033F  0838               	movf	(??_ReturnTemperature+0)+0,w
  2150  0340  00A4               	movwf	(?_onewire_sendpacket)
  2151  0341  30FB               	movlw	(0FBh)
  2152  0342  00B9               	movwf	(??_ReturnTemperature+1)+0
  2153  0343  0839               	movf	(??_ReturnTemperature+1)+0,w
  2154  0344  00A5               	movwf	0+(?_onewire_sendpacket)+01h
  2155  0345  3000               	movlw	(0)
  2156  0346  158A  25CE  118A   	fcall	_onewire_sendpacket
  2157                           	line	89
  2158                           ;IOTest.c: 89: }
  2159  0349  2C39               	goto	l3563
  2160                           	line	90
  2161                           	
  2162  034A                     l3555:	
  2163                           	
  2164  034A                     l8314:	
  2165                           ;IOTest.c: 90: else if (SensorType == 1)
  2166  034A  3001               	movlw	01h
  2167  034B  1283               	bcf	status, 5	;RP0=0, select bank0
  2168  034C  1303               	bcf	status, 6	;RP1=0, select bank0
  2169  034D  0635               	xorwf	(ReturnTemperature@SensorType),w
  2170  034E  0436               	iorwf	(ReturnTemperature@SensorType+1),w
  2171  034F  1D03               	skipz
  2172  0350  2B52               	goto	u4451
  2173  0351  2B53               	goto	u4450
  2174  0352                     u4451:
  2175  0352  2BA7               	goto	l8328
  2176  0353                     u4450:
  2177                           	line	92
  2178                           	
  2179  0353                     l8316:	
  2180                           ;IOTest.c: 91: {
  2181                           ;IOTest.c: 92: int temperature = GetTemperature(bitmap);
  2182  0353  0837               	movf	(ReturnTemperature@bitmap),w
  2183  0354  158A  2677  118A   	fcall	_GetTemperature
  2184  0357  0876               	movf	(1+(?_GetTemperature)),w
  2185  0358  1283               	bcf	status, 5	;RP0=0, select bank0
  2186  0359  1303               	bcf	status, 6	;RP1=0, select bank0
  2187  035A  01BB               	clrf	(ReturnTemperature@temperature+1)
  2188  035B  07BB               	addwf	(ReturnTemperature@temperature+1)
  2189  035C  0875               	movf	(0+(?_GetTemperature)),w
  2190  035D  01BA               	clrf	(ReturnTemperature@temperature)
  2191  035E  07BA               	addwf	(ReturnTemperature@temperature)
  2192                           
  2193                           	line	94
  2194                           	
  2195  035F                     l8318:	
  2196                           ;IOTest.c: 94: if (temperature == 0xFFFE)
  2197  035F  30FF               	movlw	high(0FFFEh)
  2198  0360  063B               	xorwf	(ReturnTemperature@temperature+1),w
  2199  0361  1D03               	skipz
  2200  0362  2B65               	goto	u4465
  2201  0363  30FE               	movlw	low(0FFFEh)
  2202  0364  063A               	xorwf	(ReturnTemperature@temperature),w
  2203  0365                     u4465:
  2204                           
  2205  0365  1D03               	skipz
  2206  0366  2B68               	goto	u4461
  2207  0367  2B69               	goto	u4460
  2208  0368                     u4461:
  2209  0368  2B76               	goto	l8322
  2210  0369                     u4460:
  2211                           	line	96
  2212                           	
  2213  0369                     l8320:	
  2214                           ;IOTest.c: 95: {
  2215                           ;IOTest.c: 96: temperature = GetTemperature(bitmap);
  2216  0369  0837               	movf	(ReturnTemperature@bitmap),w
  2217  036A  158A  2677  118A   	fcall	_GetTemperature
  2218  036D  0876               	movf	(1+(?_GetTemperature)),w
  2219  036E  1283               	bcf	status, 5	;RP0=0, select bank0
  2220  036F  1303               	bcf	status, 6	;RP1=0, select bank0
  2221  0370  01BB               	clrf	(ReturnTemperature@temperature+1)
  2222  0371  07BB               	addwf	(ReturnTemperature@temperature+1)
  2223  0372  0875               	movf	(0+(?_GetTemperature)),w
  2224  0373  01BA               	clrf	(ReturnTemperature@temperature)
  2225  0374  07BA               	addwf	(ReturnTemperature@temperature)
  2226                           
  2227  0375  2B76               	goto	l8322
  2228                           	line	97
  2229                           	
  2230  0376                     l3558:	
  2231                           	line	101
  2232                           	
  2233  0376                     l8322:	
  2234                           ;IOTest.c: 97: }
  2235                           ;IOTest.c: 101: _delay((unsigned long)((10)*(8000000/4000.0)));
  2236                           	opt asmopt_off
  2237  0376  301A               movlw	26
  2238  0377  00B9               movwf	((??_ReturnTemperature+0)+0+1),f
  2239  0378  30F8               	movlw	248
  2240  0379  00B8               movwf	((??_ReturnTemperature+0)+0),f
  2241  037A                     u4827:
  2242  037A  0BB8               	decfsz	((??_ReturnTemperature+0)+0),f
  2243  037B  2B7A               	goto	u4827
  2244  037C  0BB9               	decfsz	((??_ReturnTemperature+0)+0+1),f
  2245  037D  2B7A               	goto	u4827
  2246  037E  0064               	clrwdt
  2247                           opt asmopt_on
  2248                           
  2249                           	line	102
  2250                           	
  2251  037F                     l8324:	
  2252                           ;IOTest.c: 102: onewire_sendpacket(0x00,0x10,temperature >> 8);
  2253  037F  3010               	movlw	(010h)
  2254  0380  1283               	bcf	status, 5	;RP0=0, select bank0
  2255  0381  1303               	bcf	status, 6	;RP1=0, select bank0
  2256  0382  00B8               	movwf	(??_ReturnTemperature+0)+0
  2257  0383  0838               	movf	(??_ReturnTemperature+0)+0,w
  2258  0384  00A4               	movwf	(?_onewire_sendpacket)
  2259  0385  083B               	movf	(ReturnTemperature@temperature+1),w
  2260  0386  00B9               	movwf	(??_ReturnTemperature+1)+0
  2261  0387  0839               	movf	(??_ReturnTemperature+1)+0,w
  2262  0388  00A5               	movwf	0+(?_onewire_sendpacket)+01h
  2263  0389  3000               	movlw	(0)
  2264  038A  158A  25CE  118A   	fcall	_onewire_sendpacket
  2265                           	line	103
  2266                           ;IOTest.c: 103: _delay((unsigned long)((10)*(8000000/4000.0)));
  2267                           	opt asmopt_off
  2268  038D  301A               movlw	26
  2269  038E  1283               	bcf	status, 5	;RP0=0, select bank0
  2270  038F  1303               	bcf	status, 6	;RP1=0, select bank0
  2271  0390  00B9               movwf	((??_ReturnTemperature+0)+0+1),f
  2272  0391  30F8               	movlw	248
  2273  0392  00B8               movwf	((??_ReturnTemperature+0)+0),f
  2274  0393                     u4837:
  2275  0393  0BB8               	decfsz	((??_ReturnTemperature+0)+0),f
  2276  0394  2B93               	goto	u4837
  2277  0395  0BB9               	decfsz	((??_ReturnTemperature+0)+0+1),f
  2278  0396  2B93               	goto	u4837
  2279  0397  0064               	clrwdt
  2280                           opt asmopt_on
  2281                           
  2282                           	line	104
  2283                           	
  2284  0398                     l8326:	
  2285                           ;IOTest.c: 104: onewire_sendpacket(0x00,0x10,temperature);
  2286  0398  3010               	movlw	(010h)
  2287  0399  1283               	bcf	status, 5	;RP0=0, select bank0
  2288  039A  1303               	bcf	status, 6	;RP1=0, select bank0
  2289  039B  00B8               	movwf	(??_ReturnTemperature+0)+0
  2290  039C  0838               	movf	(??_ReturnTemperature+0)+0,w
  2291  039D  00A4               	movwf	(?_onewire_sendpacket)
  2292  039E  083A               	movf	(ReturnTemperature@temperature),w
  2293  039F  00B9               	movwf	(??_ReturnTemperature+1)+0
  2294  03A0  0839               	movf	(??_ReturnTemperature+1)+0,w
  2295  03A1  00A5               	movwf	0+(?_onewire_sendpacket)+01h
  2296  03A2  3000               	movlw	(0)
  2297  03A3  158A  25CE  118A   	fcall	_onewire_sendpacket
  2298                           	line	105
  2299                           ;IOTest.c: 105: }
  2300  03A6  2C39               	goto	l3563
  2301                           	line	106
  2302                           	
  2303  03A7                     l3557:	
  2304                           	
  2305  03A7                     l8328:	
  2306                           ;IOTest.c: 106: else if (SensorType == 2)
  2307  03A7  3002               	movlw	02h
  2308  03A8  1283               	bcf	status, 5	;RP0=0, select bank0
  2309  03A9  1303               	bcf	status, 6	;RP1=0, select bank0
  2310  03AA  0635               	xorwf	(ReturnTemperature@SensorType),w
  2311  03AB  0436               	iorwf	(ReturnTemperature@SensorType+1),w
  2312  03AC  1D03               	skipz
  2313  03AD  2BAF               	goto	u4471
  2314  03AE  2BB0               	goto	u4470
  2315  03AF                     u4471:
  2316  03AF  2C04               	goto	l8342
  2317  03B0                     u4470:
  2318                           	line	108
  2319                           	
  2320  03B0                     l8330:	
  2321                           ;IOTest.c: 107: {
  2322                           ;IOTest.c: 108: int temperature = ds_gettemperature(bitmap);
  2323  03B0  0837               	movf	(ReturnTemperature@bitmap),w
  2324  03B1  118A  2540  118A   	fcall	_ds_gettemperature
  2325  03B4  1283               	bcf	status, 5	;RP0=0, select bank0
  2326  03B5  1303               	bcf	status, 6	;RP1=0, select bank0
  2327  03B6  0825               	movf	(1+(?_ds_gettemperature)),w
  2328  03B7  01BD               	clrf	(ReturnTemperature@temperature_4136+1)
  2329  03B8  07BD               	addwf	(ReturnTemperature@temperature_4136+1)
  2330  03B9  0824               	movf	(0+(?_ds_gettemperature)),w
  2331  03BA  01BC               	clrf	(ReturnTemperature@temperature_4136)
  2332  03BB  07BC               	addwf	(ReturnTemperature@temperature_4136)
  2333                           
  2334                           	line	110
  2335                           	
  2336  03BC                     l8332:	
  2337                           ;IOTest.c: 110: if (temperature == 0xFFFE)
  2338  03BC  30FF               	movlw	high(0FFFEh)
  2339  03BD  063D               	xorwf	(ReturnTemperature@temperature_4136+1),w
  2340  03BE  1D03               	skipz
  2341  03BF  2BC2               	goto	u4485
  2342  03C0  30FE               	movlw	low(0FFFEh)
  2343  03C1  063C               	xorwf	(ReturnTemperature@temperature_4136),w
  2344  03C2                     u4485:
  2345                           
  2346  03C2  1D03               	skipz
  2347  03C3  2BC5               	goto	u4481
  2348  03C4  2BC6               	goto	u4480
  2349  03C5                     u4481:
  2350  03C5  2BD3               	goto	l8336
  2351  03C6                     u4480:
  2352                           	line	112
  2353                           	
  2354  03C6                     l8334:	
  2355                           ;IOTest.c: 111: {
  2356                           ;IOTest.c: 112: temperature = ds_gettemperature(bitmap);
  2357  03C6  0837               	movf	(ReturnTemperature@bitmap),w
  2358  03C7  118A  2540  118A   	fcall	_ds_gettemperature
  2359  03CA  1283               	bcf	status, 5	;RP0=0, select bank0
  2360  03CB  1303               	bcf	status, 6	;RP1=0, select bank0
  2361  03CC  0825               	movf	(1+(?_ds_gettemperature)),w
  2362  03CD  01BD               	clrf	(ReturnTemperature@temperature_4136+1)
  2363  03CE  07BD               	addwf	(ReturnTemperature@temperature_4136+1)
  2364  03CF  0824               	movf	(0+(?_ds_gettemperature)),w
  2365  03D0  01BC               	clrf	(ReturnTemperature@temperature_4136)
  2366  03D1  07BC               	addwf	(ReturnTemperature@temperature_4136)
  2367                           
  2368  03D2  2BD3               	goto	l8336
  2369                           	line	113
  2370                           	
  2371  03D3                     l3561:	
  2372                           	line	117
  2373                           	
  2374  03D3                     l8336:	
  2375                           ;IOTest.c: 113: }
  2376                           ;IOTest.c: 117: _delay((unsigned long)((10)*(8000000/4000.0)));
  2377                           	opt asmopt_off
  2378  03D3  301A               movlw	26
  2379  03D4  00B9               movwf	((??_ReturnTemperature+0)+0+1),f
  2380  03D5  30F8               	movlw	248
  2381  03D6  00B8               movwf	((??_ReturnTemperature+0)+0),f
  2382  03D7                     u4847:
  2383  03D7  0BB8               	decfsz	((??_ReturnTemperature+0)+0),f
  2384  03D8  2BD7               	goto	u4847
  2385  03D9  0BB9               	decfsz	((??_ReturnTemperature+0)+0+1),f
  2386  03DA  2BD7               	goto	u4847
  2387  03DB  0064               	clrwdt
  2388                           opt asmopt_on
  2389                           
  2390                           	line	118
  2391                           	
  2392  03DC                     l8338:	
  2393                           ;IOTest.c: 118: onewire_sendpacket(0x00,0x10,temperature >> 8);
  2394  03DC  3010               	movlw	(010h)
  2395  03DD  1283               	bcf	status, 5	;RP0=0, select bank0
  2396  03DE  1303               	bcf	status, 6	;RP1=0, select bank0
  2397  03DF  00B8               	movwf	(??_ReturnTemperature+0)+0
  2398  03E0  0838               	movf	(??_ReturnTemperature+0)+0,w
  2399  03E1  00A4               	movwf	(?_onewire_sendpacket)
  2400  03E2  083D               	movf	(ReturnTemperature@temperature_4136+1),w
  2401  03E3  00B9               	movwf	(??_ReturnTemperature+1)+0
  2402  03E4  0839               	movf	(??_ReturnTemperature+1)+0,w
  2403  03E5  00A5               	movwf	0+(?_onewire_sendpacket)+01h
  2404  03E6  3000               	movlw	(0)
  2405  03E7  158A  25CE  118A   	fcall	_onewire_sendpacket
  2406                           	line	119
  2407                           ;IOTest.c: 119: _delay((unsigned long)((10)*(8000000/4000.0)));
  2408                           	opt asmopt_off
  2409  03EA  301A               movlw	26
  2410  03EB  1283               	bcf	status, 5	;RP0=0, select bank0
  2411  03EC  1303               	bcf	status, 6	;RP1=0, select bank0
  2412  03ED  00B9               movwf	((??_ReturnTemperature+0)+0+1),f
  2413  03EE  30F8               	movlw	248
  2414  03EF  00B8               movwf	((??_ReturnTemperature+0)+0),f
  2415  03F0                     u4857:
  2416  03F0  0BB8               	decfsz	((??_ReturnTemperature+0)+0),f
  2417  03F1  2BF0               	goto	u4857
  2418  03F2  0BB9               	decfsz	((??_ReturnTemperature+0)+0+1),f
  2419  03F3  2BF0               	goto	u4857
  2420  03F4  0064               	clrwdt
  2421                           opt asmopt_on
  2422                           
  2423                           	line	120
  2424                           	
  2425  03F5                     l8340:	
  2426                           ;IOTest.c: 120: onewire_sendpacket(0x00,0x10,temperature);
  2427  03F5  3010               	movlw	(010h)
  2428  03F6  1283               	bcf	status, 5	;RP0=0, select bank0
  2429  03F7  1303               	bcf	status, 6	;RP1=0, select bank0
  2430  03F8  00B8               	movwf	(??_ReturnTemperature+0)+0
  2431  03F9  0838               	movf	(??_ReturnTemperature+0)+0,w
  2432  03FA  00A4               	movwf	(?_onewire_sendpacket)
  2433  03FB  083C               	movf	(ReturnTemperature@temperature_4136),w
  2434  03FC  00B9               	movwf	(??_ReturnTemperature+1)+0
  2435  03FD  0839               	movf	(??_ReturnTemperature+1)+0,w
  2436  03FE  00A5               	movwf	0+(?_onewire_sendpacket)+01h
  2437  03FF  3000               	movlw	(0)
  2438  0400  158A  25CE  118A   	fcall	_onewire_sendpacket
  2439                           	line	121
  2440                           ;IOTest.c: 121: }
  2441  0403  2C39               	goto	l3563
  2442                           	line	122
  2443                           	
  2444  0404                     l3560:	
  2445                           	line	126
  2446                           	
  2447  0404                     l8342:	
  2448                           ;IOTest.c: 122: else
  2449                           ;IOTest.c: 123: {
  2450                           ;IOTest.c: 126: _delay((unsigned long)((10)*(8000000/4000.0)));
  2451                           	opt asmopt_off
  2452  0404  301A               movlw	26
  2453  0405  1283               	bcf	status, 5	;RP0=0, select bank0
  2454  0406  1303               	bcf	status, 6	;RP1=0, select bank0
  2455  0407  00B9               movwf	((??_ReturnTemperature+0)+0+1),f
  2456  0408  30F8               	movlw	248
  2457  0409  00B8               movwf	((??_ReturnTemperature+0)+0),f
  2458  040A                     u4867:
  2459  040A  0BB8               	decfsz	((??_ReturnTemperature+0)+0),f
  2460  040B  2C0A               	goto	u4867
  2461  040C  0BB9               	decfsz	((??_ReturnTemperature+0)+0+1),f
  2462  040D  2C0A               	goto	u4867
  2463  040E  0064               	clrwdt
  2464                           opt asmopt_on
  2465                           
  2466                           	line	127
  2467                           	
  2468  040F                     l8344:	
  2469                           ;IOTest.c: 127: onewire_sendpacket(0x00,0x10,0xFF);
  2470  040F  3010               	movlw	(010h)
  2471  0410  1283               	bcf	status, 5	;RP0=0, select bank0
  2472  0411  1303               	bcf	status, 6	;RP1=0, select bank0
  2473  0412  00B8               	movwf	(??_ReturnTemperature+0)+0
  2474  0413  0838               	movf	(??_ReturnTemperature+0)+0,w
  2475  0414  00A4               	movwf	(?_onewire_sendpacket)
  2476  0415  30FF               	movlw	(0FFh)
  2477  0416  00B9               	movwf	(??_ReturnTemperature+1)+0
  2478  0417  0839               	movf	(??_ReturnTemperature+1)+0,w
  2479  0418  00A5               	movwf	0+(?_onewire_sendpacket)+01h
  2480  0419  3000               	movlw	(0)
  2481  041A  158A  25CE  118A   	fcall	_onewire_sendpacket
  2482                           	line	128
  2483                           	
  2484  041D                     l8346:	
  2485                           ;IOTest.c: 128: _delay((unsigned long)((10)*(8000000/4000.0)));
  2486                           	opt asmopt_off
  2487  041D  301A               movlw	26
  2488  041E  1283               	bcf	status, 5	;RP0=0, select bank0
  2489  041F  1303               	bcf	status, 6	;RP1=0, select bank0
  2490  0420  00B9               movwf	((??_ReturnTemperature+0)+0+1),f
  2491  0421  30F8               	movlw	248
  2492  0422  00B8               movwf	((??_ReturnTemperature+0)+0),f
  2493  0423                     u4877:
  2494  0423  0BB8               	decfsz	((??_ReturnTemperature+0)+0),f
  2495  0424  2C23               	goto	u4877
  2496  0425  0BB9               	decfsz	((??_ReturnTemperature+0)+0+1),f
  2497  0426  2C23               	goto	u4877
  2498  0427  0064               	clrwdt
  2499                           opt asmopt_on
  2500                           
  2501                           	line	129
  2502                           ;IOTest.c: 129: onewire_sendpacket(0x00,0x10,0xFA);
  2503  0428  3010               	movlw	(010h)
  2504  0429  1283               	bcf	status, 5	;RP0=0, select bank0
  2505  042A  1303               	bcf	status, 6	;RP1=0, select bank0
  2506  042B  00B8               	movwf	(??_ReturnTemperature+0)+0
  2507  042C  0838               	movf	(??_ReturnTemperature+0)+0,w
  2508  042D  00A4               	movwf	(?_onewire_sendpacket)
  2509  042E  30FA               	movlw	(0FAh)
  2510  042F  00B9               	movwf	(??_ReturnTemperature+1)+0
  2511  0430  0839               	movf	(??_ReturnTemperature+1)+0,w
  2512  0431  00A5               	movwf	0+(?_onewire_sendpacket)+01h
  2513  0432  3000               	movlw	(0)
  2514  0433  158A  25CE  118A   	fcall	_onewire_sendpacket
  2515  0436  2C39               	goto	l3563
  2516                           	line	130
  2517                           	
  2518  0437                     l3562:	
  2519  0437  2C39               	goto	l3563
  2520                           	
  2521  0438                     l3559:	
  2522  0438  2C39               	goto	l3563
  2523                           	
  2524  0439                     l3556:	
  2525                           	line	132
  2526                           	
  2527  0439                     l3563:	
  2528  0439  0008               	return
  2529                           	opt stack 0
  2530                           GLOBAL	__end_of_ReturnTemperature
  2531  043A                     	__end_of_ReturnTemperature:
  2532 ;; =============== function _ReturnTemperature ends ============
  2533                           
  2534                           	signat	_ReturnTemperature,8312
  2535                           	global	_IdentifySensor
  2536                           psect	text764,local,class=CODE,delta=2
  2537                           global __ptext764
  2538  0E18                     __ptext764:
  2539                           
  2540 ;; *************** function _IdentifySensor *****************
  2541 ;; Defined at:
  2542 ;;		line 51 in file "C:/Users/Dave/MPLABXProjects/IO Test.X/IOTest.c"
  2543 ;; Parameters:    Size  Location     Type
  2544 ;;  bitmap          1    wreg     unsigned char 
  2545 ;; Auto vars:     Size  Location     Type
  2546 ;;  bitmap          1   21[BANK0 ] unsigned char 
  2547 ;; Return value:  Size  Location     Type
  2548 ;;                  1    wreg      unsigned char 
  2549 ;; Registers used:
  2550 ;;		wreg, status,2, status,0, btemp+1, pclath, cstack
  2551 ;; Tracked objects:
  2552 ;;		On entry : 0/0
  2553 ;;		On exit  : 0/0
  2554 ;;		Unchanged: 0/0
  2555 ;; Data sizes:     COMMON   BANK0   BANK1   BANK2
  2556 ;;      Params:         0       0       0       0
  2557 ;;      Locals:         0       1       0       0
  2558 ;;      Temps:          0       0       0       0
  2559 ;;      Totals:         0       1       0       0
  2560 ;;Total ram usage:        1 bytes
  2561 ;; Hardware stack levels used:    1
  2562 ;; Hardware stack levels required when called:    4
  2563 ;; This function calls:
  2564 ;;		_GetTemperature
  2565 ;;		_ds_gettemperature
  2566 ;; This function is called by:
  2567 ;;		_AutoDetectSensors
  2568 ;; This function uses a non-reentrant model
  2569 ;;
  2570                           psect	text764
  2571                           	file	"C:/Users/Dave/MPLABXProjects/IO Test.X/IOTest.c"
  2572                           	line	51
  2573                           	global	__size_of_IdentifySensor
  2574  002F                     	__size_of_IdentifySensor	equ	__end_of_IdentifySensor-_IdentifySensor
  2575                           	
  2576  0E18                     _IdentifySensor:	
  2577                           	opt	stack 2
  2578                           ; Regs used in _IdentifySensor: [wreg+status,2+status,0+btemp+1+pclath+cstack]
  2579                           ;IdentifySensor@bitmap stored from wreg
  2580  0E18  1283               	bcf	status, 5	;RP0=0, select bank0
  2581  0E19  1303               	bcf	status, 6	;RP1=0, select bank0
  2582  0E1A  00B5               	movwf	(IdentifySensor@bitmap)
  2583                           	line	52
  2584                           	
  2585  0E1B                     l8288:	
  2586                           ;IOTest.c: 52: if (GetTemperature(bitmap) == 65534)
  2587  0E1B  0835               	movf	(IdentifySensor@bitmap),w
  2588  0E1C  158A  2677  158A   	fcall	_GetTemperature
  2589  0E1F  30FF               	movlw	high(0FFFEh)
  2590  0E20  0676               	xorwf	(1+(?_GetTemperature)),w
  2591  0E21  1D03               	skipz
  2592  0E22  2E25               	goto	u4425
  2593  0E23  30FE               	movlw	low(0FFFEh)
  2594  0E24  0675               	xorwf	(0+(?_GetTemperature)),w
  2595  0E25                     u4425:
  2596                           
  2597  0E25  1D03               	skipz
  2598  0E26  2E28               	goto	u4421
  2599  0E27  2E29               	goto	u4420
  2600  0E28                     u4421:
  2601  0E28  2E43               	goto	l8302
  2602  0E29                     u4420:
  2603                           	line	54
  2604                           	
  2605  0E29                     l8290:	
  2606                           ;IOTest.c: 53: {
  2607                           ;IOTest.c: 54: if (ds_gettemperature(bitmap) == 65534)
  2608  0E29  1283               	bcf	status, 5	;RP0=0, select bank0
  2609  0E2A  1303               	bcf	status, 6	;RP1=0, select bank0
  2610  0E2B  0835               	movf	(IdentifySensor@bitmap),w
  2611  0E2C  118A  2540  158A   	fcall	_ds_gettemperature
  2612  0E2F  30FF               	movlw	high(0FFFEh)
  2613  0E30  1283               	bcf	status, 5	;RP0=0, select bank0
  2614  0E31  1303               	bcf	status, 6	;RP1=0, select bank0
  2615  0E32  0625               	xorwf	(1+(?_ds_gettemperature)),w
  2616  0E33  1D03               	skipz
  2617  0E34  2E37               	goto	u4435
  2618  0E35  30FE               	movlw	low(0FFFEh)
  2619  0E36  0624               	xorwf	(0+(?_ds_gettemperature)),w
  2620  0E37                     u4435:
  2621                           
  2622  0E37  1D03               	skipz
  2623  0E38  2E3A               	goto	u4431
  2624  0E39  2E3B               	goto	u4430
  2625  0E3A                     u4431:
  2626  0E3A  2E3F               	goto	l8298
  2627  0E3B                     u4430:
  2628                           	line	55
  2629                           	
  2630  0E3B                     l8292:	
  2631                           ;IOTest.c: 55: return 0;
  2632  0E3B  3000               	movlw	(0)
  2633  0E3C  2E46               	goto	l3547
  2634                           	
  2635  0E3D                     l8294:	
  2636  0E3D  2E46               	goto	l3547
  2637                           	
  2638  0E3E                     l8296:	
  2639  0E3E  2E46               	goto	l3547
  2640                           	line	56
  2641                           	
  2642  0E3F                     l3546:	
  2643                           	line	57
  2644                           	
  2645  0E3F                     l8298:	
  2646                           ;IOTest.c: 56: else
  2647                           ;IOTest.c: 57: return 2;
  2648  0E3F  3002               	movlw	(02h)
  2649  0E40  2E46               	goto	l3547
  2650                           	
  2651  0E41                     l8300:	
  2652  0E41  2E46               	goto	l3547
  2653                           	
  2654  0E42                     l3548:	
  2655                           	line	58
  2656                           ;IOTest.c: 58: }
  2657  0E42  2E46               	goto	l3547
  2658                           	line	59
  2659                           	
  2660  0E43                     l3545:	
  2661                           	line	60
  2662                           	
  2663  0E43                     l8302:	
  2664                           ;IOTest.c: 59: else
  2665                           ;IOTest.c: 60: return 1;
  2666  0E43  3001               	movlw	(01h)
  2667  0E44  2E46               	goto	l3547
  2668                           	
  2669  0E45                     l8304:	
  2670  0E45  2E46               	goto	l3547
  2671                           	
  2672  0E46                     l3549:	
  2673                           	line	61
  2674                           	
  2675  0E46                     l3547:	
  2676  0E46  0008               	return
  2677                           	opt stack 0
  2678                           GLOBAL	__end_of_IdentifySensor
  2679  0E47                     	__end_of_IdentifySensor:
  2680 ;; =============== function _IdentifySensor ends ============
  2681                           
  2682                           	signat	_IdentifySensor,4217
  2683                           	global	_GetHumidity
  2684                           psect	text765,local,class=CODE,delta=2
  2685                           global __ptext765
  2686  0EBF                     __ptext765:
  2687                           
  2688 ;; *************** function _GetHumidity *****************
  2689 ;; Defined at:
  2690 ;;		line 168 in file "C:/Users/Dave/MPLABXProjects/IO Test.X/dht22.c"
  2691 ;; Parameters:    Size  Location     Type
  2692 ;;  databitmap      1    wreg     unsigned char 
  2693 ;; Auto vars:     Size  Location     Type
  2694 ;;  databitmap      1   18[BANK0 ] unsigned char 
  2695 ;;  humidity        2   19[BANK0 ] unsigned int 
  2696 ;; Return value:  Size  Location     Type
  2697 ;;                  2    5[COMMON] unsigned int 
  2698 ;; Registers used:
  2699 ;;		wreg, status,2, status,0, btemp+1, pclath, cstack
  2700 ;; Tracked objects:
  2701 ;;		On entry : 0/0
  2702 ;;		On exit  : 0/0
  2703 ;;		Unchanged: 0/0
  2704 ;; Data sizes:     COMMON   BANK0   BANK1   BANK2
  2705 ;;      Params:         2       0       0       0
  2706 ;;      Locals:         0       3       0       0
  2707 ;;      Temps:          2       0       0       0
  2708 ;;      Totals:         4       3       0       0
  2709 ;;Total ram usage:        7 bytes
  2710 ;; Hardware stack levels used:    1
  2711 ;; Hardware stack levels required when called:    3
  2712 ;; This function calls:
  2713 ;;		_GetData
  2714 ;; This function is called by:
  2715 ;;		_ReturnHumidity
  2716 ;; This function uses a non-reentrant model
  2717 ;;
  2718                           psect	text765
  2719                           	file	"C:/Users/Dave/MPLABXProjects/IO Test.X/dht22.c"
  2720                           	line	168
  2721                           	global	__size_of_GetHumidity
  2722  0048                     	__size_of_GetHumidity	equ	__end_of_GetHumidity-_GetHumidity
  2723                           	
  2724  0EBF                     _GetHumidity:	
  2725                           	opt	stack 3
  2726                           ; Regs used in _GetHumidity: [wreg+status,2+status,0+btemp+1+pclath+cstack]
  2727                           ;GetHumidity@databitmap stored from wreg
  2728                           	line	171
  2729  0EBF  1283               	bcf	status, 5	;RP0=0, select bank0
  2730  0EC0  1303               	bcf	status, 6	;RP1=0, select bank0
  2731  0EC1  00B2               	movwf	(GetHumidity@databitmap)
  2732                           	
  2733  0EC2                     l7834:	
  2734                           ;dht22.c: 169: unsigned int humidity;
  2735                           ;dht22.c: 171: DataBitMap = databitmap;
  2736  0EC2  0832               	movf	(GetHumidity@databitmap),w
  2737  0EC3  00F7               	movwf	(??_GetHumidity+0)+0
  2738  0EC4  0877               	movf	(??_GetHumidity+0)+0,w
  2739  0EC5  00C3               	movwf	(_DataBitMap)
  2740                           	line	173
  2741                           	
  2742  0EC6                     l7836:	
  2743                           ;dht22.c: 173: GetData();
  2744  0EC6  118A  2198  158A   	fcall	_GetData
  2745                           	line	175
  2746                           	
  2747  0EC9                     l7838:	
  2748                           ;dht22.c: 175: if ((!DHT_Error)&&(!DHTTimeOut))
  2749  0EC9  18F9               	btfsc	(_DHT_Error/8),(_DHT_Error)&7
  2750  0ECA  2ECC               	goto	u3841
  2751  0ECB  2ECD               	goto	u3840
  2752  0ECC                     u3841:
  2753  0ECC  2EEF               	goto	l1678
  2754  0ECD                     u3840:
  2755                           	
  2756  0ECD                     l7840:	
  2757  0ECD  1879               	btfsc	(_DHTTimeOut/8),(_DHTTimeOut)&7
  2758  0ECE  2ED0               	goto	u3851
  2759  0ECF  2ED1               	goto	u3850
  2760  0ED0                     u3851:
  2761  0ED0  2EEF               	goto	l1678
  2762  0ED1                     u3850:
  2763                           	line	177
  2764                           	
  2765  0ED1                     l7842:	
  2766                           ;dht22.c: 176: {
  2767                           ;dht22.c: 177: humidity = HumidL;
  2768  0ED1  1283               	bcf	status, 5	;RP0=0, select bank0
  2769  0ED2  1303               	bcf	status, 6	;RP1=0, select bank0
  2770  0ED3  0845               	movf	(_HumidL),w
  2771  0ED4  00F7               	movwf	(??_GetHumidity+0)+0
  2772  0ED5  01F8               	clrf	(??_GetHumidity+0)+0+1
  2773  0ED6  0877               	movf	0+(??_GetHumidity+0)+0,w
  2774  0ED7  00B3               	movwf	(GetHumidity@humidity)
  2775  0ED8  0878               	movf	1+(??_GetHumidity+0)+0,w
  2776  0ED9  00B4               	movwf	(GetHumidity@humidity+1)
  2777                           	line	178
  2778                           	
  2779  0EDA                     l7844:	
  2780                           ;dht22.c: 178: humidity += (HumidH << 8);
  2781  0EDA  0844               	movf	(_HumidH),w
  2782  0EDB  00F7               	movwf	(??_GetHumidity+0)+0
  2783  0EDC  01F8               	clrf	(??_GetHumidity+0)+0+1
  2784  0EDD  0877               	movf	(??_GetHumidity+0)+0,w
  2785  0EDE  00F8               	movwf	(??_GetHumidity+0)+1
  2786  0EDF  01F7               	clrf	(??_GetHumidity+0)+0
  2787  0EE0  0877               	movf	0+(??_GetHumidity+0)+0,w
  2788  0EE1  07B3               	addwf	(GetHumidity@humidity),f
  2789  0EE2  1803               	skipnc
  2790  0EE3  0AB4               	incf	(GetHumidity@humidity+1),f
  2791  0EE4  0878               	movf	1+(??_GetHumidity+0)+0,w
  2792  0EE5  07B4               	addwf	(GetHumidity@humidity+1),f
  2793                           	line	179
  2794                           	
  2795  0EE6                     l7846:	
  2796                           ;dht22.c: 179: return humidity;
  2797  0EE6  0834               	movf	(GetHumidity@humidity+1),w
  2798  0EE7  01F6               	clrf	(?_GetHumidity+1)
  2799  0EE8  07F6               	addwf	(?_GetHumidity+1)
  2800  0EE9  0833               	movf	(GetHumidity@humidity),w
  2801  0EEA  01F5               	clrf	(?_GetHumidity)
  2802  0EEB  07F5               	addwf	(?_GetHumidity)
  2803                           
  2804  0EEC  2F06               	goto	l1679
  2805                           	
  2806  0EED                     l7848:	
  2807  0EED  2F06               	goto	l1679
  2808                           	line	180
  2809                           	
  2810  0EEE                     l7850:	
  2811                           ;dht22.c: 180: }
  2812  0EEE  2F06               	goto	l1679
  2813                           	line	181
  2814                           	
  2815  0EEF                     l1678:	
  2816                           ;dht22.c: 181: else if (DHT_Error)
  2817  0EEF  1CF9               	btfss	(_DHT_Error/8),(_DHT_Error)&7
  2818  0EF0  2EF2               	goto	u3861
  2819  0EF1  2EF3               	goto	u3860
  2820  0EF2                     u3861:
  2821  0EF2  2EFA               	goto	l1681
  2822  0EF3                     u3860:
  2823                           	line	182
  2824                           	
  2825  0EF3                     l7852:	
  2826                           ;dht22.c: 182: return 0xFFFF;
  2827  0EF3  30FF               	movlw	low(0FFFFh)
  2828  0EF4  00F5               	movwf	(?_GetHumidity)
  2829  0EF5  30FF               	movlw	high(0FFFFh)
  2830  0EF6  00F6               	movwf	((?_GetHumidity))+1
  2831  0EF7  2F06               	goto	l1679
  2832                           	
  2833  0EF8                     l7854:	
  2834  0EF8  2F06               	goto	l1679
  2835                           	
  2836  0EF9                     l7856:	
  2837  0EF9  2F06               	goto	l1679
  2838                           	line	183
  2839                           	
  2840  0EFA                     l1681:	
  2841                           ;dht22.c: 183: else if (DHTTimeOut)
  2842  0EFA  1C79               	btfss	(_DHTTimeOut/8),(_DHTTimeOut)&7
  2843  0EFB  2EFD               	goto	u3871
  2844  0EFC  2EFE               	goto	u3870
  2845  0EFD                     u3871:
  2846  0EFD  2F06               	goto	l1679
  2847  0EFE                     u3870:
  2848                           	line	184
  2849                           	
  2850  0EFE                     l7858:	
  2851                           ;dht22.c: 184: return 0xFFFE;
  2852  0EFE  30FE               	movlw	low(0FFFEh)
  2853  0EFF  00F5               	movwf	(?_GetHumidity)
  2854  0F00  30FF               	movlw	high(0FFFEh)
  2855  0F01  00F6               	movwf	((?_GetHumidity))+1
  2856  0F02  2F06               	goto	l1679
  2857                           	
  2858  0F03                     l7860:	
  2859  0F03  2F06               	goto	l1679
  2860                           	
  2861  0F04                     l1683:	
  2862  0F04  2F06               	goto	l1679
  2863                           	line	185
  2864                           	
  2865  0F05                     l1682:	
  2866  0F05  2F06               	goto	l1679
  2867                           	
  2868  0F06                     l1680:	
  2869                           	
  2870  0F06                     l1679:	
  2871  0F06  0008               	return
  2872                           	opt stack 0
  2873                           GLOBAL	__end_of_GetHumidity
  2874  0F07                     	__end_of_GetHumidity:
  2875 ;; =============== function _GetHumidity ends ============
  2876                           
  2877                           	signat	_GetHumidity,4218
  2878                           	global	_GetTemperature
  2879                           psect	text766,local,class=CODE,delta=2
  2880                           global __ptext766
  2881  0E77                     __ptext766:
  2882                           
  2883 ;; *************** function _GetTemperature *****************
  2884 ;; Defined at:
  2885 ;;		line 148 in file "C:/Users/Dave/MPLABXProjects/IO Test.X/dht22.c"
  2886 ;; Parameters:    Size  Location     Type
  2887 ;;  databitmap      1    wreg     unsigned char 
  2888 ;; Auto vars:     Size  Location     Type
  2889 ;;  databitmap      1   18[BANK0 ] unsigned char 
  2890 ;;  temperature     2   19[BANK0 ] unsigned int 
  2891 ;; Return value:  Size  Location     Type
  2892 ;;                  2    5[COMMON] unsigned int 
  2893 ;; Registers used:
  2894 ;;		wreg, status,2, status,0, btemp+1, pclath, cstack
  2895 ;; Tracked objects:
  2896 ;;		On entry : 0/0
  2897 ;;		On exit  : 0/0
  2898 ;;		Unchanged: 0/0
  2899 ;; Data sizes:     COMMON   BANK0   BANK1   BANK2
  2900 ;;      Params:         2       0       0       0
  2901 ;;      Locals:         0       3       0       0
  2902 ;;      Temps:          2       0       0       0
  2903 ;;      Totals:         4       3       0       0
  2904 ;;Total ram usage:        7 bytes
  2905 ;; Hardware stack levels used:    1
  2906 ;; Hardware stack levels required when called:    3
  2907 ;; This function calls:
  2908 ;;		_GetData
  2909 ;; This function is called by:
  2910 ;;		_IdentifySensor
  2911 ;;		_ReturnTemperature
  2912 ;; This function uses a non-reentrant model
  2913 ;;
  2914                           psect	text766
  2915                           	file	"C:/Users/Dave/MPLABXProjects/IO Test.X/dht22.c"
  2916                           	line	148
  2917                           	global	__size_of_GetTemperature
  2918  0048                     	__size_of_GetTemperature	equ	__end_of_GetTemperature-_GetTemperature
  2919                           	
  2920  0E77                     _GetTemperature:	
  2921                           	opt	stack 2
  2922                           ; Regs used in _GetTemperature: [wreg+status,2+status,0+btemp+1+pclath+cstack]
  2923                           ;GetTemperature@databitmap stored from wreg
  2924                           	line	151
  2925  0E77  1283               	bcf	status, 5	;RP0=0, select bank0
  2926  0E78  1303               	bcf	status, 6	;RP1=0, select bank0
  2927  0E79  00B2               	movwf	(GetTemperature@databitmap)
  2928                           	
  2929  0E7A                     l7806:	
  2930                           ;dht22.c: 149: unsigned int temperature;
  2931                           ;dht22.c: 151: DataBitMap = databitmap;
  2932  0E7A  0832               	movf	(GetTemperature@databitmap),w
  2933  0E7B  00F7               	movwf	(??_GetTemperature+0)+0
  2934  0E7C  0877               	movf	(??_GetTemperature+0)+0,w
  2935  0E7D  00C3               	movwf	(_DataBitMap)
  2936                           	line	153
  2937                           	
  2938  0E7E                     l7808:	
  2939                           ;dht22.c: 153: GetData();
  2940  0E7E  118A  2198  158A   	fcall	_GetData
  2941                           	line	155
  2942                           	
  2943  0E81                     l7810:	
  2944                           ;dht22.c: 155: if ((!DHT_Error)&&(!DHTTimeOut))
  2945  0E81  18F9               	btfsc	(_DHT_Error/8),(_DHT_Error)&7
  2946  0E82  2E84               	goto	u3801
  2947  0E83  2E85               	goto	u3800
  2948  0E84                     u3801:
  2949  0E84  2EA7               	goto	l1670
  2950  0E85                     u3800:
  2951                           	
  2952  0E85                     l7812:	
  2953  0E85  1879               	btfsc	(_DHTTimeOut/8),(_DHTTimeOut)&7
  2954  0E86  2E88               	goto	u3811
  2955  0E87  2E89               	goto	u3810
  2956  0E88                     u3811:
  2957  0E88  2EA7               	goto	l1670
  2958  0E89                     u3810:
  2959                           	line	157
  2960                           	
  2961  0E89                     l7814:	
  2962                           ;dht22.c: 156: {
  2963                           ;dht22.c: 157: temperature = TempL;
  2964  0E89  1283               	bcf	status, 5	;RP0=0, select bank0
  2965  0E8A  1303               	bcf	status, 6	;RP1=0, select bank0
  2966  0E8B  084B               	movf	(_TempL),w
  2967  0E8C  00F7               	movwf	(??_GetTemperature+0)+0
  2968  0E8D  01F8               	clrf	(??_GetTemperature+0)+0+1
  2969  0E8E  0877               	movf	0+(??_GetTemperature+0)+0,w
  2970  0E8F  00B3               	movwf	(GetTemperature@temperature)
  2971  0E90  0878               	movf	1+(??_GetTemperature+0)+0,w
  2972  0E91  00B4               	movwf	(GetTemperature@temperature+1)
  2973                           	line	158
  2974                           	
  2975  0E92                     l7816:	
  2976                           ;dht22.c: 158: temperature += (TempH << 8);
  2977  0E92  084A               	movf	(_TempH),w
  2978  0E93  00F7               	movwf	(??_GetTemperature+0)+0
  2979  0E94  01F8               	clrf	(??_GetTemperature+0)+0+1
  2980  0E95  0877               	movf	(??_GetTemperature+0)+0,w
  2981  0E96  00F8               	movwf	(??_GetTemperature+0)+1
  2982  0E97  01F7               	clrf	(??_GetTemperature+0)+0
  2983  0E98  0877               	movf	0+(??_GetTemperature+0)+0,w
  2984  0E99  07B3               	addwf	(GetTemperature@temperature),f
  2985  0E9A  1803               	skipnc
  2986  0E9B  0AB4               	incf	(GetTemperature@temperature+1),f
  2987  0E9C  0878               	movf	1+(??_GetTemperature+0)+0,w
  2988  0E9D  07B4               	addwf	(GetTemperature@temperature+1),f
  2989                           	line	159
  2990                           	
  2991  0E9E                     l7818:	
  2992                           ;dht22.c: 159: return temperature;
  2993  0E9E  0834               	movf	(GetTemperature@temperature+1),w
  2994  0E9F  01F6               	clrf	(?_GetTemperature+1)
  2995  0EA0  07F6               	addwf	(?_GetTemperature+1)
  2996  0EA1  0833               	movf	(GetTemperature@temperature),w
  2997  0EA2  01F5               	clrf	(?_GetTemperature)
  2998  0EA3  07F5               	addwf	(?_GetTemperature)
  2999                           
  3000  0EA4  2EBE               	goto	l1671
  3001                           	
  3002  0EA5                     l7820:	
  3003  0EA5  2EBE               	goto	l1671
  3004                           	line	160
  3005                           	
  3006  0EA6                     l7822:	
  3007                           ;dht22.c: 160: }
  3008  0EA6  2EBE               	goto	l1671
  3009                           	line	161
  3010                           	
  3011  0EA7                     l1670:	
  3012                           ;dht22.c: 161: else if (DHT_Error)
  3013  0EA7  1CF9               	btfss	(_DHT_Error/8),(_DHT_Error)&7
  3014  0EA8  2EAA               	goto	u3821
  3015  0EA9  2EAB               	goto	u3820
  3016  0EAA                     u3821:
  3017  0EAA  2EB2               	goto	l1673
  3018  0EAB                     u3820:
  3019                           	line	162
  3020                           	
  3021  0EAB                     l7824:	
  3022                           ;dht22.c: 162: return 0xFFFF;
  3023  0EAB  30FF               	movlw	low(0FFFFh)
  3024  0EAC  00F5               	movwf	(?_GetTemperature)
  3025  0EAD  30FF               	movlw	high(0FFFFh)
  3026  0EAE  00F6               	movwf	((?_GetTemperature))+1
  3027  0EAF  2EBE               	goto	l1671
  3028                           	
  3029  0EB0                     l7826:	
  3030  0EB0  2EBE               	goto	l1671
  3031                           	
  3032  0EB1                     l7828:	
  3033  0EB1  2EBE               	goto	l1671
  3034                           	line	163
  3035                           	
  3036  0EB2                     l1673:	
  3037                           ;dht22.c: 163: else if (DHTTimeOut)
  3038  0EB2  1C79               	btfss	(_DHTTimeOut/8),(_DHTTimeOut)&7
  3039  0EB3  2EB5               	goto	u3831
  3040  0EB4  2EB6               	goto	u3830
  3041  0EB5                     u3831:
  3042  0EB5  2EBE               	goto	l1671
  3043  0EB6                     u3830:
  3044                           	line	164
  3045                           	
  3046  0EB6                     l7830:	
  3047                           ;dht22.c: 164: return 0xFFFE;
  3048  0EB6  30FE               	movlw	low(0FFFEh)
  3049  0EB7  00F5               	movwf	(?_GetTemperature)
  3050  0EB8  30FF               	movlw	high(0FFFEh)
  3051  0EB9  00F6               	movwf	((?_GetTemperature))+1
  3052  0EBA  2EBE               	goto	l1671
  3053                           	
  3054  0EBB                     l7832:	
  3055  0EBB  2EBE               	goto	l1671
  3056                           	
  3057  0EBC                     l1675:	
  3058  0EBC  2EBE               	goto	l1671
  3059                           	line	165
  3060                           	
  3061  0EBD                     l1674:	
  3062  0EBD  2EBE               	goto	l1671
  3063                           	
  3064  0EBE                     l1672:	
  3065                           	
  3066  0EBE                     l1671:	
  3067  0EBE  0008               	return
  3068                           	opt stack 0
  3069                           GLOBAL	__end_of_GetTemperature
  3070  0EBF                     	__end_of_GetTemperature:
  3071 ;; =============== function _GetTemperature ends ============
  3072                           
  3073                           	signat	_GetTemperature,4218
  3074                           	global	_onewire_listen
  3075                           psect	text767,local,class=CODE,delta=2
  3076                           global __ptext767
  3077  07AC                     __ptext767:
  3078                           
  3079 ;; *************** function _onewire_listen *****************
  3080 ;; Defined at:
  3081 ;;		line 91 in file "C:/Users/Dave/MPLABXProjects/IO Test.X/CLDTP1.c"
  3082 ;; Parameters:    Size  Location     Type
  3083 ;;  address         1    wreg     unsigned char 
  3084 ;; Auto vars:     Size  Location     Type
  3085 ;;  address         1    5[BANK0 ] unsigned char 
  3086 ;;  message_reci    2    8[BANK0 ] int 
  3087 ;;  Payload         1    7[BANK0 ] unsigned char 
  3088 ;;  RxAddress       1    6[BANK0 ] unsigned char 
  3089 ;;  TxAddress       1    4[BANK0 ] unsigned char 
  3090 ;; Return value:  Size  Location     Type
  3091 ;;                  1    wreg      unsigned char 
  3092 ;; Registers used:
  3093 ;;		wreg, status,2, status,0, btemp+1, pclath, cstack
  3094 ;; Tracked objects:
  3095 ;;		On entry : 0/0
  3096 ;;		On exit  : 0/0
  3097 ;;		Unchanged: 0/0
  3098 ;; Data sizes:     COMMON   BANK0   BANK1   BANK2
  3099 ;;      Params:         0       0       0       0
  3100 ;;      Locals:         0       6       0       0
  3101 ;;      Temps:          1       0       0       0
  3102 ;;      Totals:         1       6       0       0
  3103 ;;Total ram usage:        7 bytes
  3104 ;; Hardware stack levels used:    1
  3105 ;; Hardware stack levels required when called:    2
  3106 ;; This function calls:
  3107 ;;		_onewire_read
  3108 ;; This function is called by:
  3109 ;;		_main
  3110 ;; This function uses a non-reentrant model
  3111 ;;
  3112                           psect	text767
  3113                           	file	"C:/Users/Dave/MPLABXProjects/IO Test.X/CLDTP1.c"
  3114                           	line	91
  3115                           	global	__size_of_onewire_listen
  3116  0054                     	__size_of_onewire_listen	equ	__end_of_onewire_listen-_onewire_listen
  3117                           	
  3118  07AC                     _onewire_listen:	
  3119                           	opt	stack 5
  3120                           ; Regs used in _onewire_listen: [wreg+status,2+status,0+btemp+1+pclath+cstack]
  3121                           ;onewire_listen@address stored from wreg
  3122                           	line	95
  3123  07AC  1283               	bcf	status, 5	;RP0=0, select bank0
  3124  07AD  1303               	bcf	status, 6	;RP1=0, select bank0
  3125  07AE  00A5               	movwf	(onewire_listen@address)
  3126                           	
  3127  07AF                     l8268:	
  3128                           ;CLDTP1.c: 92: unsigned char RxAddress;
  3129                           ;CLDTP1.c: 93: unsigned char TxAddress;
  3130                           ;CLDTP1.c: 94: unsigned char Payload;
  3131                           ;CLDTP1.c: 95: int message_recieved = 0;
  3132  07AF  01A8               	clrf	(onewire_listen@message_recieved)
  3133  07B0  01A9               	clrf	(onewire_listen@message_recieved+1)
  3134                           	line	97
  3135                           ;CLDTP1.c: 97: while(message_recieved == 0)
  3136  07B1  2FF8               	goto	l8286
  3137                           	
  3138  07B2                     l4513:	
  3139                           	line	99
  3140                           ;CLDTP1.c: 98: {
  3141                           ;CLDTP1.c: 99: while((0b10000000&PORTB)>0)
  3142  07B2  2FB3               	goto	l4514
  3143                           	
  3144  07B3                     l4515:	
  3145                           	line	100
  3146                           ;CLDTP1.c: 100: {}
  3147                           	
  3148  07B3                     l4514:	
  3149                           	line	99
  3150  07B3  1B86               	btfsc	(6),(7)&7
  3151  07B4  2FB6               	goto	u4371
  3152  07B5  2FB7               	goto	u4370
  3153  07B6                     u4371:
  3154  07B6  2FB3               	goto	l4514
  3155  07B7                     u4370:
  3156  07B7  2FB8               	goto	l8270
  3157                           	
  3158  07B8                     l4516:	
  3159                           	line	103
  3160                           	
  3161  07B8                     l8270:	
  3162                           ;CLDTP1.c: 103: RxAddress = onewire_read();
  3163  07B8  118A  2668  118A   	fcall	_onewire_read
  3164  07BB  00F6               	movwf	(??_onewire_listen+0)+0
  3165  07BC  0876               	movf	(??_onewire_listen+0)+0,w
  3166  07BD  1283               	bcf	status, 5	;RP0=0, select bank0
  3167  07BE  1303               	bcf	status, 6	;RP1=0, select bank0
  3168  07BF  00A6               	movwf	(onewire_listen@RxAddress)
  3169                           	line	106
  3170                           	
  3171  07C0                     l8272:	
  3172                           ;CLDTP1.c: 106: _delay((unsigned long)((10)*(8000000/4000000.0)));
  3173                           	opt asmopt_off
  3174  07C0  3006               movlw	6
  3175  07C1  00F6               movwf	(??_onewire_listen+0)+0,f
  3176  07C2                     u4887:
  3177  07C2  0BF6               decfsz	(??_onewire_listen+0)+0,f
  3178  07C3  2FC2               	goto	u4887
  3179  07C4  0064               	clrwdt
  3180                           opt asmopt_on
  3181                           
  3182                           	line	107
  3183                           ;CLDTP1.c: 107: while((0b10000000&PORTB)>0)
  3184  07C5  2FC6               	goto	l4517
  3185                           	
  3186  07C6                     l4518:	
  3187                           	line	108
  3188                           ;CLDTP1.c: 108: {}
  3189                           	
  3190  07C6                     l4517:	
  3191                           	line	107
  3192  07C6  1283               	bcf	status, 5	;RP0=0, select bank0
  3193  07C7  1303               	bcf	status, 6	;RP1=0, select bank0
  3194  07C8  1B86               	btfsc	(6),(7)&7
  3195  07C9  2FCB               	goto	u4381
  3196  07CA  2FCC               	goto	u4380
  3197  07CB                     u4381:
  3198  07CB  2FC6               	goto	l4517
  3199  07CC                     u4380:
  3200  07CC  2FCD               	goto	l8274
  3201                           	
  3202  07CD                     l4519:	
  3203                           	line	109
  3204                           	
  3205  07CD                     l8274:	
  3206                           ;CLDTP1.c: 109: TxAddress = onewire_read();
  3207  07CD  118A  2668  118A   	fcall	_onewire_read
  3208  07D0  00F6               	movwf	(??_onewire_listen+0)+0
  3209  07D1  0876               	movf	(??_onewire_listen+0)+0,w
  3210  07D2  1283               	bcf	status, 5	;RP0=0, select bank0
  3211  07D3  1303               	bcf	status, 6	;RP1=0, select bank0
  3212  07D4  00A4               	movwf	(onewire_listen@TxAddress)
  3213                           	line	112
  3214                           	
  3215  07D5                     l8276:	
  3216                           ;CLDTP1.c: 112: _delay((unsigned long)((10)*(8000000/4000000.0)));
  3217                           	opt asmopt_off
  3218  07D5  3006               movlw	6
  3219  07D6  00F6               movwf	(??_onewire_listen+0)+0,f
  3220  07D7                     u4897:
  3221  07D7  0BF6               decfsz	(??_onewire_listen+0)+0,f
  3222  07D8  2FD7               	goto	u4897
  3223  07D9  0064               	clrwdt
  3224                           opt asmopt_on
  3225                           
  3226                           	line	113
  3227                           ;CLDTP1.c: 113: while((0b10000000&PORTB)>0)
  3228  07DA  2FDB               	goto	l4520
  3229                           	
  3230  07DB                     l4521:	
  3231                           	line	114
  3232                           ;CLDTP1.c: 114: {}
  3233                           	
  3234  07DB                     l4520:	
  3235                           	line	113
  3236  07DB  1283               	bcf	status, 5	;RP0=0, select bank0
  3237  07DC  1303               	bcf	status, 6	;RP1=0, select bank0
  3238  07DD  1B86               	btfsc	(6),(7)&7
  3239  07DE  2FE0               	goto	u4391
  3240  07DF  2FE1               	goto	u4390
  3241  07E0                     u4391:
  3242  07E0  2FDB               	goto	l4520
  3243  07E1                     u4390:
  3244  07E1  2FE2               	goto	l8278
  3245                           	
  3246  07E2                     l4522:	
  3247                           	line	115
  3248                           	
  3249  07E2                     l8278:	
  3250                           ;CLDTP1.c: 115: Payload = onewire_read();
  3251  07E2  118A  2668  118A   	fcall	_onewire_read
  3252  07E5  00F6               	movwf	(??_onewire_listen+0)+0
  3253  07E6  0876               	movf	(??_onewire_listen+0)+0,w
  3254  07E7  1283               	bcf	status, 5	;RP0=0, select bank0
  3255  07E8  1303               	bcf	status, 6	;RP1=0, select bank0
  3256  07E9  00A7               	movwf	(onewire_listen@Payload)
  3257                           	line	117
  3258                           	
  3259  07EA                     l8280:	
  3260                           ;CLDTP1.c: 117: if(RxAddress == address)
  3261  07EA  0826               	movf	(onewire_listen@RxAddress),w
  3262  07EB  0625               	xorwf	(onewire_listen@address),w
  3263  07EC  1D03               	skipz
  3264  07ED  2FEF               	goto	u4401
  3265  07EE  2FF0               	goto	u4400
  3266  07EF                     u4401:
  3267  07EF  2FF8               	goto	l8286
  3268  07F0                     u4400:
  3269                           	line	119
  3270                           	
  3271  07F0                     l8282:	
  3272                           ;CLDTP1.c: 118: {
  3273                           ;CLDTP1.c: 119: message_recieved = 1;
  3274  07F0  3001               	movlw	low(01h)
  3275  07F1  00A8               	movwf	(onewire_listen@message_recieved)
  3276  07F2  3000               	movlw	high(01h)
  3277  07F3  00A9               	movwf	((onewire_listen@message_recieved))+1
  3278                           	line	120
  3279                           ;CLDTP1.c: 120: return Payload;
  3280  07F4  0827               	movf	(onewire_listen@Payload),w
  3281  07F5  2FFF               	goto	l4524
  3282                           	
  3283  07F6                     l8284:	
  3284  07F6  2FFF               	goto	l4524
  3285                           	line	121
  3286                           	
  3287  07F7                     l4523:	
  3288  07F7  2FF8               	goto	l8286
  3289                           	line	122
  3290                           	
  3291  07F8                     l4512:	
  3292                           	line	97
  3293                           	
  3294  07F8                     l8286:	
  3295  07F8  0829               	movf	(onewire_listen@message_recieved+1),w
  3296  07F9  0428               	iorwf	(onewire_listen@message_recieved),w
  3297  07FA  1903               	skipnz
  3298  07FB  2FFD               	goto	u4411
  3299  07FC  2FFE               	goto	u4410
  3300  07FD                     u4411:
  3301  07FD  2FB3               	goto	l4514
  3302  07FE                     u4410:
  3303  07FE  2FFF               	goto	l4524
  3304                           	
  3305  07FF                     l4525:	
  3306                           	line	123
  3307                           	
  3308  07FF                     l4524:	
  3309  07FF  0008               	return
  3310                           	opt stack 0
  3311                           GLOBAL	__end_of_onewire_listen
  3312  0800                     	__end_of_onewire_listen:
  3313 ;; =============== function _onewire_listen ends ============
  3314                           
  3315                           	signat	_onewire_listen,4217
  3316                           	global	_onewire_sendpacket
  3317                           psect	text768,local,class=CODE,delta=2
  3318                           global __ptext768
  3319  0DCE                     __ptext768:
  3320                           
  3321 ;; *************** function _onewire_sendpacket *****************
  3322 ;; Defined at:
  3323 ;;		line 126 in file "C:/Users/Dave/MPLABXProjects/IO Test.X/CLDTP1.c"
  3324 ;; Parameters:    Size  Location     Type
  3325 ;;  RxAddress       1    wreg     unsigned char 
  3326 ;;  TxAddress       1    4[BANK0 ] unsigned char 
  3327 ;;  payload         1    5[BANK0 ] unsigned char 
  3328 ;; Auto vars:     Size  Location     Type
  3329 ;;  RxAddress       1    7[COMMON] unsigned char 
  3330 ;; Return value:  Size  Location     Type
  3331 ;;		None               void
  3332 ;; Registers used:
  3333 ;;		wreg, status,2, status,0, btemp+1, pclath, cstack
  3334 ;; Tracked objects:
  3335 ;;		On entry : 0/0
  3336 ;;		On exit  : 0/0
  3337 ;;		Unchanged: 0/0
  3338 ;; Data sizes:     COMMON   BANK0   BANK1   BANK2
  3339 ;;      Params:         0       2       0       0
  3340 ;;      Locals:         1       0       0       0
  3341 ;;      Temps:          1       0       0       0
  3342 ;;      Totals:         2       2       0       0
  3343 ;;Total ram usage:        4 bytes
  3344 ;; Hardware stack levels used:    1
  3345 ;; Hardware stack levels required when called:    2
  3346 ;; This function calls:
  3347 ;;		_onewire_write
  3348 ;; This function is called by:
  3349 ;;		_AutoDetectSensors
  3350 ;;		_ReturnTemperature
  3351 ;;		_ReturnHumidity
  3352 ;;		_main
  3353 ;; This function uses a non-reentrant model
  3354 ;;
  3355                           psect	text768
  3356                           	file	"C:/Users/Dave/MPLABXProjects/IO Test.X/CLDTP1.c"
  3357                           	line	126
  3358                           	global	__size_of_onewire_sendpacket
  3359  001C                     	__size_of_onewire_sendpacket	equ	__end_of_onewire_sendpacket-_onewire_sendpacket
  3360                           	
  3361  0DCE                     _onewire_sendpacket:	
  3362                           	opt	stack 4
  3363                           ; Regs used in _onewire_sendpacket: [wreg+status,2+status,0+btemp+1+pclath+cstack]
  3364                           ;onewire_sendpacket@RxAddress stored from wreg
  3365  0DCE  00F7               	movwf	(onewire_sendpacket@RxAddress)
  3366                           	line	127
  3367                           	
  3368  0DCF                     l8260:	
  3369                           ;CLDTP1.c: 127: onewire_write(RxAddress);
  3370  0DCF  0877               	movf	(onewire_sendpacket@RxAddress),w
  3371  0DD0  118A  2744  158A   	fcall	_onewire_write
  3372                           	line	128
  3373                           	
  3374  0DD3                     l8262:	
  3375                           ;CLDTP1.c: 128: _delay((unsigned long)((10)*(8000000/4000000.0)));
  3376                           	opt asmopt_off
  3377  0DD3  3006               movlw	6
  3378  0DD4  00F6               movwf	(??_onewire_sendpacket+0)+0,f
  3379  0DD5                     u4907:
  3380  0DD5  0BF6               decfsz	(??_onewire_sendpacket+0)+0,f
  3381  0DD6  2DD5               	goto	u4907
  3382  0DD7  0064               	clrwdt
  3383                           opt asmopt_on
  3384                           
  3385                           	line	129
  3386                           	
  3387  0DD8                     l8264:	
  3388                           ;CLDTP1.c: 129: onewire_write(TxAddress);
  3389  0DD8  1283               	bcf	status, 5	;RP0=0, select bank0
  3390  0DD9  1303               	bcf	status, 6	;RP1=0, select bank0
  3391  0DDA  0824               	movf	(onewire_sendpacket@TxAddress),w
  3392  0DDB  118A  2744  158A   	fcall	_onewire_write
  3393                           	line	130
  3394                           ;CLDTP1.c: 130: _delay((unsigned long)((10)*(8000000/4000000.0)));
  3395                           	opt asmopt_off
  3396  0DDE  3006               movlw	6
  3397  0DDF  00F6               movwf	(??_onewire_sendpacket+0)+0,f
  3398  0DE0                     u4917:
  3399  0DE0  0BF6               decfsz	(??_onewire_sendpacket+0)+0,f
  3400  0DE1  2DE0               	goto	u4917
  3401  0DE2  0064               	clrwdt
  3402                           opt asmopt_on
  3403                           
  3404                           	line	131
  3405                           	
  3406  0DE3                     l8266:	
  3407                           ;CLDTP1.c: 131: onewire_write(payload);
  3408  0DE3  1283               	bcf	status, 5	;RP0=0, select bank0
  3409  0DE4  1303               	bcf	status, 6	;RP1=0, select bank0
  3410  0DE5  0825               	movf	(onewire_sendpacket@payload),w
  3411  0DE6  118A  2744  158A   	fcall	_onewire_write
  3412                           	line	132
  3413                           	
  3414  0DE9                     l4528:	
  3415  0DE9  0008               	return
  3416                           	opt stack 0
  3417                           GLOBAL	__end_of_onewire_sendpacket
  3418  0DEA                     	__end_of_onewire_sendpacket:
  3419 ;; =============== function _onewire_sendpacket ends ============
  3420                           
  3421                           	signat	_onewire_sendpacket,12408
  3422                           	global	_ds_gettemperature
  3423                           psect	text769,local,class=CODE,delta=2
  3424                           global __ptext769
  3425  0540                     __ptext769:
  3426                           
  3427 ;; *************** function _ds_gettemperature *****************
  3428 ;; Defined at:
  3429 ;;		line 174 in file "C:/Users/Dave/MPLABXProjects/IO Test.X/ds18b20.c"
  3430 ;; Parameters:    Size  Location     Type
  3431 ;;  databitmap      1    wreg     unsigned char 
  3432 ;; Auto vars:     Size  Location     Type
  3433 ;;  databitmap      1    9[BANK0 ] unsigned char 
  3434 ;;  result_decim    2   14[BANK0 ] unsigned int 
  3435 ;;  result          2   12[BANK0 ] unsigned int 
  3436 ;;  result_int      2   10[BANK0 ] unsigned int 
  3437 ;; Return value:  Size  Location     Type
  3438 ;;                  2    4[BANK0 ] unsigned int 
  3439 ;; Registers used:
  3440 ;;		wreg, status,2, status,0, btemp+1, pclath, cstack
  3441 ;; Tracked objects:
  3442 ;;		On entry : 0/0
  3443 ;;		On exit  : 0/0
  3444 ;;		Unchanged: 0/0
  3445 ;; Data sizes:     COMMON   BANK0   BANK1   BANK2
  3446 ;;      Params:         0       2       0       0
  3447 ;;      Locals:         0       7       0       0
  3448 ;;      Temps:          0       3       0       0
  3449 ;;      Totals:         0      12       0       0
  3450 ;;Total ram usage:       12 bytes
  3451 ;; Hardware stack levels used:    1
  3452 ;; Hardware stack levels required when called:    2
  3453 ;; This function calls:
  3454 ;;		_ds_reset
  3455 ;;		_ds_write
  3456 ;;		_ds_read
  3457 ;;		___wmul
  3458 ;;		___lwdiv
  3459 ;; This function is called by:
  3460 ;;		_IdentifySensor
  3461 ;;		_ReturnTemperature
  3462 ;; This function uses a non-reentrant model
  3463 ;;
  3464                           psect	text769
  3465                           	file	"C:/Users/Dave/MPLABXProjects/IO Test.X/ds18b20.c"
  3466                           	line	174
  3467                           	global	__size_of_ds_gettemperature
  3468  00B3                     	__size_of_ds_gettemperature	equ	__end_of_ds_gettemperature-_ds_gettemperature
  3469                           	
  3470  0540                     _ds_gettemperature:	
  3471                           	opt	stack 3
  3472                           ; Regs used in _ds_gettemperature: [wreg+status,2+status,0+btemp+1+pclath+cstack]
  3473                           ;ds_gettemperature@databitmap stored from wreg
  3474                           	line	179
  3475  0540  1283               	bcf	status, 5	;RP0=0, select bank0
  3476  0541  1303               	bcf	status, 6	;RP1=0, select bank0
  3477  0542  00A9               	movwf	(ds_gettemperature@databitmap)
  3478                           	
  3479  0543                     l8220:	
  3480                           ;ds18b20.c: 175: unsigned int result;
  3481                           ;ds18b20.c: 176: unsigned int result_int;
  3482                           ;ds18b20.c: 177: unsigned int result_decimals;
  3483                           ;ds18b20.c: 179: DataBitMap = databitmap;
  3484  0543  0829               	movf	(ds_gettemperature@databitmap),w
  3485  0544  00A6               	movwf	(??_ds_gettemperature+0)+0
  3486  0545  0826               	movf	(??_ds_gettemperature+0)+0,w
  3487  0546  00C3               	movwf	(_DataBitMap)
  3488                           	line	181
  3489                           	
  3490  0547                     l8222:	
  3491                           ;ds18b20.c: 181: ds_reset();
  3492  0547  158A  2757  118A   	fcall	_ds_reset
  3493                           	line	182
  3494                           	
  3495  054A                     l8224:	
  3496                           ;ds18b20.c: 182: if (!DS18b20TimeOut)
  3497  054A  1979               	btfsc	(_DS18b20TimeOut/8),(_DS18b20TimeOut)&7
  3498  054B  2D4D               	goto	u4351
  3499  054C  2D4E               	goto	u4350
  3500  054D                     u4351:
  3501  054D  2DEA               	goto	l8256
  3502  054E                     u4350:
  3503                           	line	184
  3504                           	
  3505  054E                     l8226:	
  3506                           ;ds18b20.c: 183: {
  3507                           ;ds18b20.c: 184: ds_write(0xcc);
  3508  054E  30CC               	movlw	(0CCh)
  3509  054F  118A  26D9  118A   	fcall	_ds_write
  3510                           	line	185
  3511                           ;ds18b20.c: 185: ds_write(0x44);
  3512  0552  3044               	movlw	(044h)
  3513  0553  118A  26D9  118A   	fcall	_ds_write
  3514                           	line	187
  3515                           	
  3516  0556                     l8228:	
  3517                           ;ds18b20.c: 187: _delay((unsigned long)((1000)*(8000000/4000.0)));
  3518                           	opt asmopt_off
  3519  0556  300B               movlw  11
  3520  0557  1283               	bcf	status, 5	;RP0=0, select bank0
  3521  0558  1303               	bcf	status, 6	;RP1=0, select bank0
  3522  0559  00A8               movwf	((??_ds_gettemperature+0)+0+2),f
  3523  055A  3026               movlw	38
  3524  055B  00A7               movwf	((??_ds_gettemperature+0)+0+1),f
  3525  055C  3066               	movlw	102
  3526  055D  00A6               movwf	((??_ds_gettemperature+0)+0),f
  3527  055E                     u4927:
  3528  055E  0BA6               	decfsz	((??_ds_gettemperature+0)+0),f
  3529  055F  2D5E               	goto	u4927
  3530  0560  0BA7               	decfsz	((??_ds_gettemperature+0)+0+1),f
  3531  0561  2D5E               	goto	u4927
  3532  0562  0BA8               	decfsz	((??_ds_gettemperature+0)+0+2),f
  3533  0563  2D5E               	goto	u4927
  3534  0564  2D65               	nop2
  3535                           opt asmopt_on
  3536                           
  3537                           	line	189
  3538                           	
  3539  0565                     l8230:	
  3540                           ;ds18b20.c: 189: ds_reset();
  3541  0565  158A  2757  118A   	fcall	_ds_reset
  3542                           	line	190
  3543                           	
  3544  0568                     l8232:	
  3545                           ;ds18b20.c: 190: ds_write(0xcc);
  3546  0568  30CC               	movlw	(0CCh)
  3547  0569  118A  26D9  118A   	fcall	_ds_write
  3548                           	line	191
  3549                           	
  3550  056C                     l8234:	
  3551                           ;ds18b20.c: 191: ds_write(0xbe);
  3552  056C  30BE               	movlw	(0BEh)
  3553  056D  118A  26D9  118A   	fcall	_ds_write
  3554                           	line	193
  3555                           	
  3556  0570                     l8236:	
  3557                           ;ds18b20.c: 193: result = ds_read();
  3558  0570  118A  25F3  118A   	fcall	_ds_read
  3559  0573  1283               	bcf	status, 5	;RP0=0, select bank0
  3560  0574  1303               	bcf	status, 6	;RP1=0, select bank0
  3561  0575  00A6               	movwf	(??_ds_gettemperature+0)+0
  3562  0576  01A7               	clrf	(??_ds_gettemperature+0)+0+1
  3563  0577  0826               	movf	0+(??_ds_gettemperature+0)+0,w
  3564  0578  00AC               	movwf	(ds_gettemperature@result)
  3565  0579  0827               	movf	1+(??_ds_gettemperature+0)+0,w
  3566  057A  00AD               	movwf	(ds_gettemperature@result+1)
  3567                           	line	194
  3568                           	
  3569  057B                     l8238:	
  3570                           ;ds18b20.c: 194: result += (ds_read() << 8);
  3571  057B  118A  25F3  118A   	fcall	_ds_read
  3572  057E  1283               	bcf	status, 5	;RP0=0, select bank0
  3573  057F  1303               	bcf	status, 6	;RP1=0, select bank0
  3574  0580  00A6               	movwf	(??_ds_gettemperature+0)+0
  3575  0581  01A7               	clrf	(??_ds_gettemperature+0)+0+1
  3576  0582  0826               	movf	(??_ds_gettemperature+0)+0,w
  3577  0583  00A7               	movwf	(??_ds_gettemperature+0)+1
  3578  0584  01A6               	clrf	(??_ds_gettemperature+0)+0
  3579  0585  0826               	movf	0+(??_ds_gettemperature+0)+0,w
  3580  0586  07AC               	addwf	(ds_gettemperature@result),f
  3581  0587  1803               	skipnc
  3582  0588  0AAD               	incf	(ds_gettemperature@result+1),f
  3583  0589  0827               	movf	1+(??_ds_gettemperature+0)+0,w
  3584  058A  07AD               	addwf	(ds_gettemperature@result+1),f
  3585                           	line	198
  3586                           	
  3587  058B                     l8240:	
  3588                           ;ds18b20.c: 198: result_int = ((result >> 4) * 10);
  3589  058B  082D               	movf	(ds_gettemperature@result+1),w
  3590  058C  00A7               	movwf	(??_ds_gettemperature+0)+0+1
  3591  058D  082C               	movf	(ds_gettemperature@result),w
  3592  058E  00A6               	movwf	(??_ds_gettemperature+0)+0
  3593  058F  3004               	movlw	04h
  3594  0590                     u4365:
  3595  0590  1003               	clrc
  3596  0591  0CA7               	rrf	(??_ds_gettemperature+0)+1,f
  3597  0592  0CA6               	rrf	(??_ds_gettemperature+0)+0,f
  3598  0593  3EFF               	addlw	-1
  3599  0594  1D03               	skipz
  3600  0595  2D90               	goto	u4365
  3601  0596  0826               	movf	0+(??_ds_gettemperature+0)+0,w
  3602  0597  00F4               	movwf	(?___wmul)
  3603  0598  0827               	movf	1+(??_ds_gettemperature+0)+0,w
  3604  0599  00F5               	movwf	(?___wmul+1)
  3605  059A  300A               	movlw	low(0Ah)
  3606  059B  00F6               	movwf	0+(?___wmul)+02h
  3607  059C  3000               	movlw	high(0Ah)
  3608  059D  00F7               	movwf	(0+(?___wmul)+02h)+1
  3609  059E  158A  2647  118A   	fcall	___wmul
  3610  05A1  0875               	movf	(1+(?___wmul)),w
  3611  05A2  1283               	bcf	status, 5	;RP0=0, select bank0
  3612  05A3  1303               	bcf	status, 6	;RP1=0, select bank0
  3613  05A4  01AB               	clrf	(ds_gettemperature@result_int+1)
  3614  05A5  07AB               	addwf	(ds_gettemperature@result_int+1)
  3615  05A6  0874               	movf	(0+(?___wmul)),w
  3616  05A7  01AA               	clrf	(ds_gettemperature@result_int)
  3617  05A8  07AA               	addwf	(ds_gettemperature@result_int)
  3618                           
  3619                           	line	201
  3620                           	
  3621  05A9                     l8242:	
  3622                           ;ds18b20.c: 201: result_decimals = result & 0b00001111;
  3623  05A9  300F               	movlw	low(0Fh)
  3624  05AA  052C               	andwf	(ds_gettemperature@result),w
  3625  05AB  00AE               	movwf	(ds_gettemperature@result_decimals)
  3626  05AC  3000               	movlw	high(0Fh)
  3627  05AD  052D               	andwf	(ds_gettemperature@result+1),w
  3628  05AE  00AF               	movwf	1+(ds_gettemperature@result_decimals)
  3629                           	line	202
  3630                           	
  3631  05AF                     l8244:	
  3632                           ;ds18b20.c: 202: result_decimals = result_decimals * 625;
  3633  05AF  082F               	movf	(ds_gettemperature@result_decimals+1),w
  3634  05B0  01F5               	clrf	(?___wmul+1)
  3635  05B1  07F5               	addwf	(?___wmul+1)
  3636  05B2  082E               	movf	(ds_gettemperature@result_decimals),w
  3637  05B3  01F4               	clrf	(?___wmul)
  3638  05B4  07F4               	addwf	(?___wmul)
  3639                           
  3640  05B5  3071               	movlw	low(0271h)
  3641  05B6  00F6               	movwf	0+(?___wmul)+02h
  3642  05B7  3002               	movlw	high(0271h)
  3643  05B8  00F7               	movwf	(0+(?___wmul)+02h)+1
  3644  05B9  158A  2647  118A   	fcall	___wmul
  3645  05BC  0875               	movf	(1+(?___wmul)),w
  3646  05BD  1283               	bcf	status, 5	;RP0=0, select bank0
  3647  05BE  1303               	bcf	status, 6	;RP1=0, select bank0
  3648  05BF  01AF               	clrf	(ds_gettemperature@result_decimals+1)
  3649  05C0  07AF               	addwf	(ds_gettemperature@result_decimals+1)
  3650  05C1  0874               	movf	(0+(?___wmul)),w
  3651  05C2  01AE               	clrf	(ds_gettemperature@result_decimals)
  3652  05C3  07AE               	addwf	(ds_gettemperature@result_decimals)
  3653                           
  3654                           	line	203
  3655                           	
  3656  05C4                     l8246:	
  3657                           ;ds18b20.c: 203: result_decimals = result_decimals / 1000;
  3658  05C4  30E8               	movlw	low(03E8h)
  3659  05C5  00F4               	movwf	(?___lwdiv)
  3660  05C6  3003               	movlw	high(03E8h)
  3661  05C7  00F5               	movwf	((?___lwdiv))+1
  3662  05C8  082F               	movf	(ds_gettemperature@result_decimals+1),w
  3663  05C9  01F7               	clrf	1+(?___lwdiv)+02h
  3664  05CA  07F7               	addwf	1+(?___lwdiv)+02h
  3665  05CB  082E               	movf	(ds_gettemperature@result_decimals),w
  3666  05CC  01F6               	clrf	0+(?___lwdiv)+02h
  3667  05CD  07F6               	addwf	0+(?___lwdiv)+02h
  3668                           
  3669  05CE  158A  2707  118A   	fcall	___lwdiv
  3670  05D1  0875               	movf	(1+(?___lwdiv)),w
  3671  05D2  1283               	bcf	status, 5	;RP0=0, select bank0
  3672  05D3  1303               	bcf	status, 6	;RP1=0, select bank0
  3673  05D4  01AF               	clrf	(ds_gettemperature@result_decimals+1)
  3674  05D5  07AF               	addwf	(ds_gettemperature@result_decimals+1)
  3675  05D6  0874               	movf	(0+(?___lwdiv)),w
  3676  05D7  01AE               	clrf	(ds_gettemperature@result_decimals)
  3677  05D8  07AE               	addwf	(ds_gettemperature@result_decimals)
  3678                           
  3679                           	line	205
  3680                           	
  3681  05D9                     l8248:	
  3682                           ;ds18b20.c: 205: result = result_int + result_decimals;
  3683  05D9  082E               	movf	(ds_gettemperature@result_decimals),w
  3684  05DA  072A               	addwf	(ds_gettemperature@result_int),w
  3685  05DB  00AC               	movwf	(ds_gettemperature@result)
  3686  05DC  082F               	movf	(ds_gettemperature@result_decimals+1),w
  3687  05DD  1803               	skipnc
  3688  05DE  0A2F               	incf	(ds_gettemperature@result_decimals+1),w
  3689  05DF  072B               	addwf	(ds_gettemperature@result_int+1),w
  3690  05E0  00AD               	movwf	1+(ds_gettemperature@result)
  3691                           	line	206
  3692                           	
  3693  05E1                     l8250:	
  3694                           ;ds18b20.c: 206: return result;
  3695  05E1  082D               	movf	(ds_gettemperature@result+1),w
  3696  05E2  01A5               	clrf	(?_ds_gettemperature+1)
  3697  05E3  07A5               	addwf	(?_ds_gettemperature+1)
  3698  05E4  082C               	movf	(ds_gettemperature@result),w
  3699  05E5  01A4               	clrf	(?_ds_gettemperature)
  3700  05E6  07A4               	addwf	(?_ds_gettemperature)
  3701                           
  3702  05E7  2DF2               	goto	l2619
  3703                           	
  3704  05E8                     l8252:	
  3705  05E8  2DF2               	goto	l2619
  3706                           	line	207
  3707                           	
  3708  05E9                     l8254:	
  3709                           ;ds18b20.c: 207: }
  3710  05E9  2DF2               	goto	l2619
  3711                           	line	208
  3712                           	
  3713  05EA                     l2618:	
  3714                           	line	210
  3715                           	
  3716  05EA                     l8256:	
  3717                           ;ds18b20.c: 208: else
  3718                           ;ds18b20.c: 209: {
  3719                           ;ds18b20.c: 210: return 0xFFFE;
  3720  05EA  30FE               	movlw	low(0FFFEh)
  3721  05EB  1283               	bcf	status, 5	;RP0=0, select bank0
  3722  05EC  1303               	bcf	status, 6	;RP1=0, select bank0
  3723  05ED  00A4               	movwf	(?_ds_gettemperature)
  3724  05EE  30FF               	movlw	high(0FFFEh)
  3725  05EF  00A5               	movwf	((?_ds_gettemperature))+1
  3726  05F0  2DF2               	goto	l2619
  3727                           	
  3728  05F1                     l8258:	
  3729  05F1  2DF2               	goto	l2619
  3730                           	line	211
  3731                           	
  3732  05F2                     l2620:	
  3733                           	line	212
  3734                           	
  3735  05F2                     l2619:	
  3736  05F2  0008               	return
  3737                           	opt stack 0
  3738                           GLOBAL	__end_of_ds_gettemperature
  3739  05F3                     	__end_of_ds_gettemperature:
  3740 ;; =============== function _ds_gettemperature ends ============
  3741                           
  3742                           	signat	_ds_gettemperature,4218
  3743                           	global	_GetData
  3744                           psect	text770,local,class=CODE,delta=2
  3745                           global __ptext770
  3746  0198                     __ptext770:
  3747                           
  3748 ;; *************** function _GetData *****************
  3749 ;; Defined at:
  3750 ;;		line 62 in file "C:/Users/Dave/MPLABXProjects/IO Test.X/dht22.c"
  3751 ;; Parameters:    Size  Location     Type
  3752 ;;		None
  3753 ;; Auto vars:     Size  Location     Type
  3754 ;;  i               2   16[BANK0 ] int 
  3755 ;;  i               2   14[BANK0 ] int 
  3756 ;;  i               2   12[BANK0 ] int 
  3757 ;;  i               2   10[BANK0 ] int 
  3758 ;;  i               2    8[BANK0 ] int 
  3759 ;;  Check           2    6[BANK0 ] int 
  3760 ;; Return value:  Size  Location     Type
  3761 ;;		None               void
  3762 ;; Registers used:
  3763 ;;		wreg, status,2, status,0, btemp+1, pclath, cstack
  3764 ;; Tracked objects:
  3765 ;;		On entry : 0/0
  3766 ;;		On exit  : 0/0
  3767 ;;		Unchanged: 0/0
  3768 ;; Data sizes:     COMMON   BANK0   BANK1   BANK2
  3769 ;;      Params:         0       0       0       0
  3770 ;;      Locals:         0      12       0       0
  3771 ;;      Temps:          0       6       0       0
  3772 ;;      Totals:         0      18       0       0
  3773 ;;Total ram usage:       18 bytes
  3774 ;; Hardware stack levels used:    1
  3775 ;; Hardware stack levels required when called:    2
  3776 ;; This function calls:
  3777 ;;		_ReadBit
  3778 ;; This function is called by:
  3779 ;;		_GetTemperature
  3780 ;;		_GetHumidity
  3781 ;; This function uses a non-reentrant model
  3782 ;;
  3783                           psect	text770
  3784                           	file	"C:/Users/Dave/MPLABXProjects/IO Test.X/dht22.c"
  3785                           	line	62
  3786                           	global	__size_of_GetData
  3787  0179                     	__size_of_GetData	equ	__end_of_GetData-_GetData
  3788                           	
  3789  0198                     _GetData:	
  3790                           	opt	stack 2
  3791                           ; Regs used in _GetData: [wreg+status,2+status,0+btemp+1+pclath+cstack]
  3792                           	line	64
  3793                           	
  3794  0198                     l7634:	
  3795                           ;dht22.c: 64: TRISC = 0b00001111;
  3796  0198  300F               	movlw	(0Fh)
  3797  0199  1683               	bsf	status, 5	;RP0=1, select bank1
  3798  019A  1303               	bcf	status, 6	;RP1=0, select bank1
  3799  019B  0087               	movwf	(135)^080h	;volatile
  3800                           	line	65
  3801                           	
  3802  019C                     l7636:	
  3803                           ;dht22.c: 65: PORTC = (~DataBitMap)&PORTC;
  3804  019C  1283               	bcf	status, 5	;RP0=0, select bank0
  3805  019D  1303               	bcf	status, 6	;RP1=0, select bank0
  3806  019E  0943               	comf	(_DataBitMap),w
  3807  019F  0507               	andwf	(7),w
  3808  01A0  0087               	movwf	(7)	;volatile
  3809                           	line	66
  3810                           	
  3811  01A1                     l7638:	
  3812                           ;dht22.c: 66: _delay((unsigned long)((2000)*(8000000/4000.0)));
  3813                           	opt asmopt_off
  3814  01A1  3015               movlw  21
  3815  01A2  00A2               movwf	((??_GetData+0)+0+2),f
  3816  01A3  304B               movlw	75
  3817  01A4  00A1               movwf	((??_GetData+0)+0+1),f
  3818  01A5  30D1               	movlw	209
  3819  01A6  00A0               movwf	((??_GetData+0)+0),f
  3820  01A7                     u4937:
  3821  01A7  0BA0               	decfsz	((??_GetData+0)+0),f
  3822  01A8  29A7               	goto	u4937
  3823  01A9  0BA1               	decfsz	((??_GetData+0)+0+1),f
  3824  01AA  29A7               	goto	u4937
  3825  01AB  0BA2               	decfsz	((??_GetData+0)+0+2),f
  3826  01AC  29A7               	goto	u4937
  3827  01AD  0064               	clrwdt
  3828                           opt asmopt_on
  3829                           
  3830                           	line	69
  3831                           	
  3832  01AE                     l7640:	
  3833                           ;dht22.c: 69: TRISC = 0b00000000;
  3834  01AE  1683               	bsf	status, 5	;RP0=1, select bank1
  3835  01AF  1303               	bcf	status, 6	;RP1=0, select bank1
  3836  01B0  0187               	clrf	(135)^080h	;volatile
  3837                           	line	70
  3838                           	
  3839  01B1                     l7642:	
  3840                           ;dht22.c: 70: PORTC = (~DataBitMap)&PORTC;
  3841  01B1  1283               	bcf	status, 5	;RP0=0, select bank0
  3842  01B2  1303               	bcf	status, 6	;RP1=0, select bank0
  3843  01B3  0943               	comf	(_DataBitMap),w
  3844  01B4  0507               	andwf	(7),w
  3845  01B5  0087               	movwf	(7)	;volatile
  3846                           	line	71
  3847                           	
  3848  01B6                     l7644:	
  3849                           ;dht22.c: 71: _delay((unsigned long)((2)*(8000000/4000.0)));
  3850                           	opt asmopt_off
  3851  01B6  3006               movlw	6
  3852  01B7  00A1               movwf	((??_GetData+0)+0+1),f
  3853  01B8  3030               	movlw	48
  3854  01B9  00A0               movwf	((??_GetData+0)+0),f
  3855  01BA                     u4947:
  3856  01BA  0BA0               	decfsz	((??_GetData+0)+0),f
  3857  01BB  29BA               	goto	u4947
  3858  01BC  0BA1               	decfsz	((??_GetData+0)+0+1),f
  3859  01BD  29BA               	goto	u4947
  3860  01BE  0064               	clrwdt
  3861                           opt asmopt_on
  3862                           
  3863                           	line	74
  3864                           	
  3865  01BF                     l7646:	
  3866                           ;dht22.c: 74: TRISC = 0b00001111;
  3867  01BF  300F               	movlw	(0Fh)
  3868  01C0  1683               	bsf	status, 5	;RP0=1, select bank1
  3869  01C1  1303               	bcf	status, 6	;RP1=0, select bank1
  3870  01C2  0087               	movwf	(135)^080h	;volatile
  3871                           	line	77
  3872                           	
  3873  01C3                     l7648:	
  3874                           ;dht22.c: 77: TMR1ON = 0;
  3875  01C3  1283               	bcf	status, 5	;RP0=0, select bank0
  3876  01C4  1303               	bcf	status, 6	;RP1=0, select bank0
  3877  01C5  1010               	bcf	(128/8),(128)&7
  3878                           	line	78
  3879                           	
  3880  01C6                     l7650:	
  3881                           ;dht22.c: 78: DHTTimeOut = 0;
  3882  01C6  1079               	bcf	(_DHTTimeOut/8),(_DHTTimeOut)&7
  3883                           	line	79
  3884                           ;dht22.c: 79: TMR1H = 0x0;
  3885  01C7  018F               	clrf	(15)	;volatile
  3886                           	line	80
  3887                           ;dht22.c: 80: TMR1L = 0x0;
  3888  01C8  018E               	clrf	(14)	;volatile
  3889                           	line	81
  3890                           	
  3891  01C9                     l7652:	
  3892                           ;dht22.c: 81: T1CON = 0b00110000;
  3893  01C9  3030               	movlw	(030h)
  3894  01CA  0090               	movwf	(16)	;volatile
  3895                           	line	82
  3896                           	
  3897  01CB                     l7654:	
  3898                           ;dht22.c: 82: PIE1 = 0b00000001;
  3899  01CB  3001               	movlw	(01h)
  3900  01CC  1683               	bsf	status, 5	;RP0=1, select bank1
  3901  01CD  1303               	bcf	status, 6	;RP1=0, select bank1
  3902  01CE  008C               	movwf	(140)^080h	;volatile
  3903                           	line	83
  3904                           	
  3905  01CF                     l7656:	
  3906                           ;dht22.c: 83: INTCON = 0b11000000;
  3907  01CF  30C0               	movlw	(0C0h)
  3908  01D0  008B               	movwf	(11)	;volatile
  3909                           	line	84
  3910                           	
  3911  01D1                     l7658:	
  3912                           ;dht22.c: 84: TMR1ON = 1;
  3913  01D1  1283               	bcf	status, 5	;RP0=0, select bank0
  3914  01D2  1303               	bcf	status, 6	;RP1=0, select bank0
  3915  01D3  1410               	bsf	(128/8),(128)&7
  3916                           	line	89
  3917                           ;dht22.c: 89: while (((DataBitMap&PORTC)>0)&&!DHTTimeOut)
  3918  01D4  29D6               	goto	l7660
  3919                           	
  3920  01D5                     l1640:	
  3921  01D5  29D6               	goto	l7660
  3922                           	line	91
  3923                           ;dht22.c: 90: {
  3924                           	
  3925  01D6                     l1639:	
  3926                           	line	89
  3927                           	
  3928  01D6                     l7660:	
  3929  01D6  0843               	movf	(_DataBitMap),w
  3930  01D7  0507               	andwf	(7),w	;volatile
  3931  01D8  1903               	btfsc	status,2
  3932  01D9  29DB               	goto	u3551
  3933  01DA  29DC               	goto	u3550
  3934  01DB                     u3551:
  3935  01DB  29E4               	goto	l7664
  3936  01DC                     u3550:
  3937                           	
  3938  01DC                     l7662:	
  3939  01DC  1C79               	btfss	(_DHTTimeOut/8),(_DHTTimeOut)&7
  3940  01DD  29DF               	goto	u3561
  3941  01DE  29E0               	goto	u3560
  3942  01DF                     u3561:
  3943  01DF  29D6               	goto	l7660
  3944  01E0                     u3560:
  3945  01E0  29E4               	goto	l7664
  3946                           	
  3947  01E1                     l1642:	
  3948  01E1  29E4               	goto	l7664
  3949                           	
  3950  01E2                     l1643:	
  3951                           	line	94
  3952                           ;dht22.c: 91: }
  3953                           ;dht22.c: 94: while (((DataBitMap&PORTC)==0)&&!DHTTimeOut)
  3954  01E2  29E4               	goto	l7664
  3955                           	
  3956  01E3                     l1645:	
  3957  01E3  29E4               	goto	l7664
  3958                           	line	96
  3959                           ;dht22.c: 95: {
  3960                           	
  3961  01E4                     l1644:	
  3962                           	line	94
  3963                           	
  3964  01E4                     l7664:	
  3965  01E4  0843               	movf	(_DataBitMap),w
  3966  01E5  0507               	andwf	(7),w	;volatile
  3967  01E6  1D03               	btfss	status,2
  3968  01E7  29E9               	goto	u3571
  3969  01E8  29EA               	goto	u3570
  3970  01E9                     u3571:
  3971  01E9  29F2               	goto	l7668
  3972  01EA                     u3570:
  3973                           	
  3974  01EA                     l7666:	
  3975  01EA  1C79               	btfss	(_DHTTimeOut/8),(_DHTTimeOut)&7
  3976  01EB  29ED               	goto	u3581
  3977  01EC  29EE               	goto	u3580
  3978  01ED                     u3581:
  3979  01ED  29E4               	goto	l7664
  3980  01EE                     u3580:
  3981  01EE  29F2               	goto	l7668
  3982                           	
  3983  01EF                     l1647:	
  3984  01EF  29F2               	goto	l7668
  3985                           	
  3986  01F0                     l1648:	
  3987                           	line	99
  3988                           ;dht22.c: 96: }
  3989                           ;dht22.c: 99: while (((DataBitMap&PORTC)>0)&& !DHTTimeOut)
  3990  01F0  29F2               	goto	l7668
  3991                           	
  3992  01F1                     l1650:	
  3993  01F1  29F2               	goto	l7668
  3994                           	line	101
  3995                           ;dht22.c: 100: {
  3996                           	
  3997  01F2                     l1649:	
  3998                           	line	99
  3999                           	
  4000  01F2                     l7668:	
  4001  01F2  0843               	movf	(_DataBitMap),w
  4002  01F3  0507               	andwf	(7),w	;volatile
  4003  01F4  1903               	btfsc	status,2
  4004  01F5  29F7               	goto	u3591
  4005  01F6  29F8               	goto	u3590
  4006  01F7                     u3591:
  4007  01F7  29FD               	goto	l1653
  4008  01F8                     u3590:
  4009                           	
  4010  01F8                     l7670:	
  4011  01F8  1C79               	btfss	(_DHTTimeOut/8),(_DHTTimeOut)&7
  4012  01F9  29FB               	goto	u3601
  4013  01FA  29FC               	goto	u3600
  4014  01FB                     u3601:
  4015  01FB  29F2               	goto	l7668
  4016  01FC                     u3600:
  4017  01FC  29FD               	goto	l1653
  4018                           	
  4019  01FD                     l1652:	
  4020                           	
  4021  01FD                     l1653:	
  4022                           	line	103
  4023                           ;dht22.c: 101: }
  4024                           ;dht22.c: 103: TMR1ON = 0;
  4025  01FD  1010               	bcf	(128/8),(128)&7
  4026                           	line	105
  4027                           ;dht22.c: 105: if (!DHTTimeOut)
  4028  01FE  1879               	btfsc	(_DHTTimeOut/8),(_DHTTimeOut)&7
  4029  01FF  2A01               	goto	u3611
  4030  0200  2A02               	goto	u3610
  4031  0201                     u3611:
  4032  0201  2B10               	goto	l1667
  4033  0202                     u3610:
  4034                           	line	107
  4035                           	
  4036  0202                     l7672:	
  4037                           ;dht22.c: 106: {
  4038                           ;dht22.c: 107: for (int i = 0; i < 8; i++)
  4039  0202  01A8               	clrf	(GetData@i)
  4040  0203  01A9               	clrf	(GetData@i+1)
  4041                           	
  4042  0204                     l7674:	
  4043  0204  0829               	movf	(GetData@i+1),w
  4044  0205  3A80               	xorlw	80h
  4045  0206  00FF               	movwf	btemp+1
  4046  0207  3080               	movlw	(high(08h))^80h
  4047  0208  027F               	subwf	btemp+1,w
  4048  0209  1D03               	skipz
  4049  020A  2A0D               	goto	u3625
  4050  020B  3008               	movlw	low(08h)
  4051  020C  0228               	subwf	(GetData@i),w
  4052  020D                     u3625:
  4053                           
  4054  020D  1C03               	skipc
  4055  020E  2A10               	goto	u3621
  4056  020F  2A11               	goto	u3620
  4057  0210                     u3621:
  4058  0210  2A13               	goto	l7678
  4059  0211                     u3620:
  4060  0211  2A2D               	goto	l7684
  4061                           	
  4062  0212                     l7676:	
  4063  0212  2A2D               	goto	l7684
  4064                           	line	108
  4065                           	
  4066  0213                     l1655:	
  4067                           	line	109
  4068                           	
  4069  0213                     l7678:	
  4070                           ;dht22.c: 108: {
  4071                           ;dht22.c: 109: HumidH = (HumidH << 1) + ReadBit();
  4072  0213  158A  25EA  118A   	fcall	_ReadBit
  4073  0216  1283               	bcf	status, 5	;RP0=0, select bank0
  4074  0217  1303               	bcf	status, 6	;RP1=0, select bank0
  4075  0218  0DC4               	rlf	(_HumidH),f
  4076                           	line	107
  4077                           	
  4078  0219                     l7680:	
  4079  0219  3001               	movlw	low(01h)
  4080  021A  07A8               	addwf	(GetData@i),f
  4081  021B  1803               	skipnc
  4082  021C  0AA9               	incf	(GetData@i+1),f
  4083  021D  3000               	movlw	high(01h)
  4084  021E  07A9               	addwf	(GetData@i+1),f
  4085                           	
  4086  021F                     l7682:	
  4087  021F  0829               	movf	(GetData@i+1),w
  4088  0220  3A80               	xorlw	80h
  4089  0221  00FF               	movwf	btemp+1
  4090  0222  3080               	movlw	(high(08h))^80h
  4091  0223  027F               	subwf	btemp+1,w
  4092  0224  1D03               	skipz
  4093  0225  2A28               	goto	u3635
  4094  0226  3008               	movlw	low(08h)
  4095  0227  0228               	subwf	(GetData@i),w
  4096  0228                     u3635:
  4097                           
  4098  0228  1C03               	skipc
  4099  0229  2A2B               	goto	u3631
  4100  022A  2A2C               	goto	u3630
  4101  022B                     u3631:
  4102  022B  2A13               	goto	l7678
  4103  022C                     u3630:
  4104  022C  2A2D               	goto	l7684
  4105                           	
  4106  022D                     l1656:	
  4107                           	line	112
  4108                           	
  4109  022D                     l7684:	
  4110                           ;dht22.c: 110: }
  4111                           ;dht22.c: 112: for (int i = 0; i < 8; i++)
  4112  022D  1283               	bcf	status, 5	;RP0=0, select bank0
  4113  022E  1303               	bcf	status, 6	;RP1=0, select bank0
  4114  022F  01AA               	clrf	(GetData@i_1941)
  4115  0230  01AB               	clrf	(GetData@i_1941+1)
  4116                           	
  4117  0231                     l7686:	
  4118  0231  082B               	movf	(GetData@i_1941+1),w
  4119  0232  3A80               	xorlw	80h
  4120  0233  00FF               	movwf	btemp+1
  4121  0234  3080               	movlw	(high(08h))^80h
  4122  0235  027F               	subwf	btemp+1,w
  4123  0236  1D03               	skipz
  4124  0237  2A3A               	goto	u3645
  4125  0238  3008               	movlw	low(08h)
  4126  0239  022A               	subwf	(GetData@i_1941),w
  4127  023A                     u3645:
  4128                           
  4129  023A  1C03               	skipc
  4130  023B  2A3D               	goto	u3641
  4131  023C  2A3E               	goto	u3640
  4132  023D                     u3641:
  4133  023D  2A40               	goto	l7690
  4134  023E                     u3640:
  4135  023E  2A5A               	goto	l7696
  4136                           	
  4137  023F                     l7688:	
  4138  023F  2A5A               	goto	l7696
  4139                           	line	113
  4140                           	
  4141  0240                     l1657:	
  4142                           	line	114
  4143                           	
  4144  0240                     l7690:	
  4145                           ;dht22.c: 113: {
  4146                           ;dht22.c: 114: HumidL = (HumidL << 1) + ReadBit();
  4147  0240  158A  25EA  118A   	fcall	_ReadBit
  4148  0243  1283               	bcf	status, 5	;RP0=0, select bank0
  4149  0244  1303               	bcf	status, 6	;RP1=0, select bank0
  4150  0245  0DC5               	rlf	(_HumidL),f
  4151                           	line	112
  4152                           	
  4153  0246                     l7692:	
  4154  0246  3001               	movlw	low(01h)
  4155  0247  07AA               	addwf	(GetData@i_1941),f
  4156  0248  1803               	skipnc
  4157  0249  0AAB               	incf	(GetData@i_1941+1),f
  4158  024A  3000               	movlw	high(01h)
  4159  024B  07AB               	addwf	(GetData@i_1941+1),f
  4160                           	
  4161  024C                     l7694:	
  4162  024C  082B               	movf	(GetData@i_1941+1),w
  4163  024D  3A80               	xorlw	80h
  4164  024E  00FF               	movwf	btemp+1
  4165  024F  3080               	movlw	(high(08h))^80h
  4166  0250  027F               	subwf	btemp+1,w
  4167  0251  1D03               	skipz
  4168  0252  2A55               	goto	u3655
  4169  0253  3008               	movlw	low(08h)
  4170  0254  022A               	subwf	(GetData@i_1941),w
  4171  0255                     u3655:
  4172                           
  4173  0255  1C03               	skipc
  4174  0256  2A58               	goto	u3651
  4175  0257  2A59               	goto	u3650
  4176  0258                     u3651:
  4177  0258  2A40               	goto	l7690
  4178  0259                     u3650:
  4179  0259  2A5A               	goto	l7696
  4180                           	
  4181  025A                     l1658:	
  4182                           	line	117
  4183                           	
  4184  025A                     l7696:	
  4185                           ;dht22.c: 115: }
  4186                           ;dht22.c: 117: for (int i = 0; i < 8; i++)
  4187  025A  1283               	bcf	status, 5	;RP0=0, select bank0
  4188  025B  1303               	bcf	status, 6	;RP1=0, select bank0
  4189  025C  01AC               	clrf	(GetData@i_1942)
  4190  025D  01AD               	clrf	(GetData@i_1942+1)
  4191                           	
  4192  025E                     l7698:	
  4193  025E  082D               	movf	(GetData@i_1942+1),w
  4194  025F  3A80               	xorlw	80h
  4195  0260  00FF               	movwf	btemp+1
  4196  0261  3080               	movlw	(high(08h))^80h
  4197  0262  027F               	subwf	btemp+1,w
  4198  0263  1D03               	skipz
  4199  0264  2A67               	goto	u3665
  4200  0265  3008               	movlw	low(08h)
  4201  0266  022C               	subwf	(GetData@i_1942),w
  4202  0267                     u3665:
  4203                           
  4204  0267  1C03               	skipc
  4205  0268  2A6A               	goto	u3661
  4206  0269  2A6B               	goto	u3660
  4207  026A                     u3661:
  4208  026A  2A6D               	goto	l7702
  4209  026B                     u3660:
  4210  026B  2A87               	goto	l7708
  4211                           	
  4212  026C                     l7700:	
  4213  026C  2A87               	goto	l7708
  4214                           	line	118
  4215                           	
  4216  026D                     l1659:	
  4217                           	line	119
  4218                           	
  4219  026D                     l7702:	
  4220                           ;dht22.c: 118: {
  4221                           ;dht22.c: 119: TempH = (TempH << 1) + ReadBit();
  4222  026D  158A  25EA  118A   	fcall	_ReadBit
  4223  0270  1283               	bcf	status, 5	;RP0=0, select bank0
  4224  0271  1303               	bcf	status, 6	;RP1=0, select bank0
  4225  0272  0DCA               	rlf	(_TempH),f
  4226                           	line	117
  4227                           	
  4228  0273                     l7704:	
  4229  0273  3001               	movlw	low(01h)
  4230  0274  07AC               	addwf	(GetData@i_1942),f
  4231  0275  1803               	skipnc
  4232  0276  0AAD               	incf	(GetData@i_1942+1),f
  4233  0277  3000               	movlw	high(01h)
  4234  0278  07AD               	addwf	(GetData@i_1942+1),f
  4235                           	
  4236  0279                     l7706:	
  4237  0279  082D               	movf	(GetData@i_1942+1),w
  4238  027A  3A80               	xorlw	80h
  4239  027B  00FF               	movwf	btemp+1
  4240  027C  3080               	movlw	(high(08h))^80h
  4241  027D  027F               	subwf	btemp+1,w
  4242  027E  1D03               	skipz
  4243  027F  2A82               	goto	u3675
  4244  0280  3008               	movlw	low(08h)
  4245  0281  022C               	subwf	(GetData@i_1942),w
  4246  0282                     u3675:
  4247                           
  4248  0282  1C03               	skipc
  4249  0283  2A85               	goto	u3671
  4250  0284  2A86               	goto	u3670
  4251  0285                     u3671:
  4252  0285  2A6D               	goto	l7702
  4253  0286                     u3670:
  4254  0286  2A87               	goto	l7708
  4255                           	
  4256  0287                     l1660:	
  4257                           	line	122
  4258                           	
  4259  0287                     l7708:	
  4260                           ;dht22.c: 120: }
  4261                           ;dht22.c: 122: for (int i = 0; i < 8; i++)
  4262  0287  1283               	bcf	status, 5	;RP0=0, select bank0
  4263  0288  1303               	bcf	status, 6	;RP1=0, select bank0
  4264  0289  01AE               	clrf	(GetData@i_1943)
  4265  028A  01AF               	clrf	(GetData@i_1943+1)
  4266                           	
  4267  028B                     l7710:	
  4268  028B  082F               	movf	(GetData@i_1943+1),w
  4269  028C  3A80               	xorlw	80h
  4270  028D  00FF               	movwf	btemp+1
  4271  028E  3080               	movlw	(high(08h))^80h
  4272  028F  027F               	subwf	btemp+1,w
  4273  0290  1D03               	skipz
  4274  0291  2A94               	goto	u3685
  4275  0292  3008               	movlw	low(08h)
  4276  0293  022E               	subwf	(GetData@i_1943),w
  4277  0294                     u3685:
  4278                           
  4279  0294  1C03               	skipc
  4280  0295  2A97               	goto	u3681
  4281  0296  2A98               	goto	u3680
  4282  0297                     u3681:
  4283  0297  2A9A               	goto	l7714
  4284  0298                     u3680:
  4285  0298  2AB4               	goto	l7720
  4286                           	
  4287  0299                     l7712:	
  4288  0299  2AB4               	goto	l7720
  4289                           	line	123
  4290                           	
  4291  029A                     l1661:	
  4292                           	line	124
  4293                           	
  4294  029A                     l7714:	
  4295                           ;dht22.c: 123: {
  4296                           ;dht22.c: 124: TempL = (TempL << 1) + ReadBit();
  4297  029A  158A  25EA  118A   	fcall	_ReadBit
  4298  029D  1283               	bcf	status, 5	;RP0=0, select bank0
  4299  029E  1303               	bcf	status, 6	;RP1=0, select bank0
  4300  029F  0DCB               	rlf	(_TempL),f
  4301                           	line	122
  4302                           	
  4303  02A0                     l7716:	
  4304  02A0  3001               	movlw	low(01h)
  4305  02A1  07AE               	addwf	(GetData@i_1943),f
  4306  02A2  1803               	skipnc
  4307  02A3  0AAF               	incf	(GetData@i_1943+1),f
  4308  02A4  3000               	movlw	high(01h)
  4309  02A5  07AF               	addwf	(GetData@i_1943+1),f
  4310                           	
  4311  02A6                     l7718:	
  4312  02A6  082F               	movf	(GetData@i_1943+1),w
  4313  02A7  3A80               	xorlw	80h
  4314  02A8  00FF               	movwf	btemp+1
  4315  02A9  3080               	movlw	(high(08h))^80h
  4316  02AA  027F               	subwf	btemp+1,w
  4317  02AB  1D03               	skipz
  4318  02AC  2AAF               	goto	u3695
  4319  02AD  3008               	movlw	low(08h)
  4320  02AE  022E               	subwf	(GetData@i_1943),w
  4321  02AF                     u3695:
  4322                           
  4323  02AF  1C03               	skipc
  4324  02B0  2AB2               	goto	u3691
  4325  02B1  2AB3               	goto	u3690
  4326  02B2                     u3691:
  4327  02B2  2A9A               	goto	l7714
  4328  02B3                     u3690:
  4329  02B3  2AB4               	goto	l7720
  4330                           	
  4331  02B4                     l1662:	
  4332                           	line	127
  4333                           	
  4334  02B4                     l7720:	
  4335                           ;dht22.c: 125: }
  4336                           ;dht22.c: 127: for (int i = 0; i < 8; i++)
  4337  02B4  1283               	bcf	status, 5	;RP0=0, select bank0
  4338  02B5  1303               	bcf	status, 6	;RP1=0, select bank0
  4339  02B6  01B0               	clrf	(GetData@i_1944)
  4340  02B7  01B1               	clrf	(GetData@i_1944+1)
  4341                           	
  4342  02B8                     l7722:	
  4343  02B8  0831               	movf	(GetData@i_1944+1),w
  4344  02B9  3A80               	xorlw	80h
  4345  02BA  00FF               	movwf	btemp+1
  4346  02BB  3080               	movlw	(high(08h))^80h
  4347  02BC  027F               	subwf	btemp+1,w
  4348  02BD  1D03               	skipz
  4349  02BE  2AC1               	goto	u3705
  4350  02BF  3008               	movlw	low(08h)
  4351  02C0  0230               	subwf	(GetData@i_1944),w
  4352  02C1                     u3705:
  4353                           
  4354  02C1  1C03               	skipc
  4355  02C2  2AC4               	goto	u3701
  4356  02C3  2AC5               	goto	u3700
  4357  02C4                     u3701:
  4358  02C4  2AC7               	goto	l7726
  4359  02C5                     u3700:
  4360  02C5  2AE1               	goto	l7732
  4361                           	
  4362  02C6                     l7724:	
  4363  02C6  2AE1               	goto	l7732
  4364                           	line	128
  4365                           	
  4366  02C7                     l1663:	
  4367                           	line	129
  4368                           	
  4369  02C7                     l7726:	
  4370                           ;dht22.c: 128: {
  4371                           ;dht22.c: 129: CheckSum = (CheckSum << 1) + ReadBit();
  4372  02C7  158A  25EA  118A   	fcall	_ReadBit
  4373  02CA  1283               	bcf	status, 5	;RP0=0, select bank0
  4374  02CB  1303               	bcf	status, 6	;RP1=0, select bank0
  4375  02CC  0DC2               	rlf	(_CheckSum),f
  4376                           	line	127
  4377                           	
  4378  02CD                     l7728:	
  4379  02CD  3001               	movlw	low(01h)
  4380  02CE  07B0               	addwf	(GetData@i_1944),f
  4381  02CF  1803               	skipnc
  4382  02D0  0AB1               	incf	(GetData@i_1944+1),f
  4383  02D1  3000               	movlw	high(01h)
  4384  02D2  07B1               	addwf	(GetData@i_1944+1),f
  4385                           	
  4386  02D3                     l7730:	
  4387  02D3  0831               	movf	(GetData@i_1944+1),w
  4388  02D4  3A80               	xorlw	80h
  4389  02D5  00FF               	movwf	btemp+1
  4390  02D6  3080               	movlw	(high(08h))^80h
  4391  02D7  027F               	subwf	btemp+1,w
  4392  02D8  1D03               	skipz
  4393  02D9  2ADC               	goto	u3715
  4394  02DA  3008               	movlw	low(08h)
  4395  02DB  0230               	subwf	(GetData@i_1944),w
  4396  02DC                     u3715:
  4397                           
  4398  02DC  1C03               	skipc
  4399  02DD  2ADF               	goto	u3711
  4400  02DE  2AE0               	goto	u3710
  4401  02DF                     u3711:
  4402  02DF  2AC7               	goto	l7726
  4403  02E0                     u3710:
  4404  02E0  2AE1               	goto	l7732
  4405                           	
  4406  02E1                     l1664:	
  4407                           	line	134
  4408                           	
  4409  02E1                     l7732:	
  4410                           ;dht22.c: 130: }
  4411                           ;dht22.c: 132: int Check;
  4412                           ;dht22.c: 134: Check = ((HumidH + HumidL + TempH + TempL) & 0xFF);
  4413  02E1  1283               	bcf	status, 5	;RP0=0, select bank0
  4414  02E2  1303               	bcf	status, 6	;RP1=0, select bank0
  4415  02E3  0844               	movf	(_HumidH),w
  4416  02E4  0745               	addwf	(_HumidL),w
  4417  02E5  00A0               	movwf	(??_GetData+0)+0
  4418  02E6  01A1               	clrf	(??_GetData+0)+0+1
  4419  02E7  0DA1               	rlf	1+(??_GetData+0)+0,f
  4420                           	
  4421  02E8  084A               	movf	(_TempH),w
  4422  02E9  0720               	addwf	0+(??_GetData+0)+0,w
  4423  02EA  00A2               	movwf	(??_GetData+2)+0
  4424  02EB  3000               	movlw	0
  4425  02EC  1803               	skipnc
  4426  02ED  3001               	movlw	1
  4427  02EE  0721               	addwf	1+(??_GetData+0)+0,w
  4428  02EF  00A3               	movwf	1+(??_GetData+2)+0
  4429  02F0  084B               	movf	(_TempL),w
  4430  02F1  0722               	addwf	0+(??_GetData+2)+0,w
  4431  02F2  00A4               	movwf	(??_GetData+4)+0
  4432  02F3  3000               	movlw	0
  4433  02F4  1803               	skipnc
  4434  02F5  3001               	movlw	1
  4435  02F6  0723               	addwf	1+(??_GetData+2)+0,w
  4436  02F7  00A5               	movwf	1+(??_GetData+4)+0
  4437  02F8  30FF               	movlw	low(0FFh)
  4438  02F9  0524               	andwf	0+(??_GetData+4)+0,w
  4439  02FA  00A6               	movwf	(GetData@Check)
  4440  02FB  3000               	movlw	high(0FFh)
  4441  02FC  0525               	andwf	1+(??_GetData+4)+0,w
  4442  02FD  00A7               	movwf	1+(GetData@Check)
  4443                           	line	136
  4444                           	
  4445  02FE                     l7734:	
  4446                           ;dht22.c: 136: if (Check == CheckSum)
  4447  02FE  0842               	movf	(_CheckSum),w
  4448  02FF  00A0               	movwf	(??_GetData+0)+0
  4449  0300  01A1               	clrf	(??_GetData+0)+0+1
  4450  0301  0827               	movf	(GetData@Check+1),w
  4451  0302  0621               	xorwf	1+(??_GetData+0)+0,w
  4452  0303  1D03               	skipz
  4453  0304  2B07               	goto	u3725
  4454  0305  0826               	movf	(GetData@Check),w
  4455  0306  0620               	xorwf	0+(??_GetData+0)+0,w
  4456  0307                     u3725:
  4457                           
  4458  0307  1D03               	skipz
  4459  0308  2B0A               	goto	u3721
  4460  0309  2B0B               	goto	u3720
  4461  030A                     u3721:
  4462  030A  2B0D               	goto	l1665
  4463  030B                     u3720:
  4464                           	line	138
  4465                           	
  4466  030B                     l7736:	
  4467                           ;dht22.c: 137: {
  4468                           ;dht22.c: 138: DHT_Error = 0;
  4469  030B  10F9               	bcf	(_DHT_Error/8),(_DHT_Error)&7
  4470                           	line	139
  4471                           ;dht22.c: 139: }
  4472  030C  2B10               	goto	l1667
  4473                           	line	140
  4474                           	
  4475  030D                     l1665:	
  4476                           	line	142
  4477                           ;dht22.c: 140: else
  4478                           ;dht22.c: 141: {
  4479                           ;dht22.c: 142: DHT_Error = 1;
  4480  030D  14F9               	bsf	(_DHT_Error/8),(_DHT_Error)&7
  4481  030E  2B10               	goto	l1667
  4482                           	line	143
  4483                           	
  4484  030F                     l1666:	
  4485  030F  2B10               	goto	l1667
  4486                           	line	144
  4487                           	
  4488  0310                     l1654:	
  4489                           	line	145
  4490                           	
  4491  0310                     l1667:	
  4492  0310  0008               	return
  4493                           	opt stack 0
  4494                           GLOBAL	__end_of_GetData
  4495  0311                     	__end_of_GetData:
  4496 ;; =============== function _GetData ends ============
  4497                           
  4498                           	signat	_GetData,88
  4499                           	global	_onewire_read
  4500                           psect	text771,local,class=CODE,delta=2
  4501                           global __ptext771
  4502  0668                     __ptext771:
  4503                           
  4504 ;; *************** function _onewire_read *****************
  4505 ;; Defined at:
  4506 ;;		line 51 in file "C:/Users/Dave/MPLABXProjects/IO Test.X/CLDTP1.c"
  4507 ;; Parameters:    Size  Location     Type
  4508 ;;		None
  4509 ;; Auto vars:     Size  Location     Type
  4510 ;;  count           2    1[BANK0 ] int 
  4511 ;;  data            1    3[BANK0 ] unsigned char 
  4512 ;;  databit         1    0[BANK0 ] unsigned char 
  4513 ;; Return value:  Size  Location     Type
  4514 ;;                  1    wreg      unsigned char 
  4515 ;; Registers used:
  4516 ;;		wreg, status,2, status,0, btemp+1
  4517 ;; Tracked objects:
  4518 ;;		On entry : 0/0
  4519 ;;		On exit  : 0/0
  4520 ;;		Unchanged: 0/0
  4521 ;; Data sizes:     COMMON   BANK0   BANK1   BANK2
  4522 ;;      Params:         0       0       0       0
  4523 ;;      Locals:         0       4       0       0
  4524 ;;      Temps:          2       0       0       0
  4525 ;;      Totals:         2       4       0       0
  4526 ;;Total ram usage:        6 bytes
  4527 ;; Hardware stack levels used:    1
  4528 ;; Hardware stack levels required when called:    1
  4529 ;; This function calls:
  4530 ;;		Nothing
  4531 ;; This function is called by:
  4532 ;;		_onewire_listen
  4533 ;; This function uses a non-reentrant model
  4534 ;;
  4535                           psect	text771
  4536                           	file	"C:/Users/Dave/MPLABXProjects/IO Test.X/CLDTP1.c"
  4537                           	line	51
  4538                           	global	__size_of_onewire_read
  4539  0071                     	__size_of_onewire_read	equ	__end_of_onewire_read-_onewire_read
  4540                           	
  4541  0668                     _onewire_read:	
  4542                           	opt	stack 5
  4543                           ; Regs used in _onewire_read: [wreg+status,2+status,0+btemp+1]
  4544                           	line	52
  4545                           	
  4546  0668                     l8188:	
  4547                           ;CLDTP1.c: 52: char data = 0x0;
  4548  0668  1283               	bcf	status, 5	;RP0=0, select bank0
  4549  0669  1303               	bcf	status, 6	;RP1=0, select bank0
  4550  066A  01A3               	clrf	(onewire_read@data)
  4551                           	line	53
  4552                           ;CLDTP1.c: 53: char databit = 0;
  4553  066B  01A0               	clrf	(onewire_read@databit)
  4554                           	line	54
  4555                           	
  4556  066C                     l8190:	
  4557                           ;CLDTP1.c: 54: for (int count = 8;count > 0;count--)
  4558  066C  3008               	movlw	low(08h)
  4559  066D  00A1               	movwf	(onewire_read@count)
  4560  066E  3000               	movlw	high(08h)
  4561  066F  00A2               	movwf	((onewire_read@count))+1
  4562                           	
  4563  0670                     l8192:	
  4564  0670  0822               	movf	(onewire_read@count+1),w
  4565  0671  3A80               	xorlw	80h
  4566  0672  00FF               	movwf	btemp+1
  4567  0673  3080               	movlw	(high(01h))^80h
  4568  0674  027F               	subwf	btemp+1,w
  4569  0675  1D03               	skipz
  4570  0676  2E79               	goto	u4285
  4571  0677  3001               	movlw	low(01h)
  4572  0678  0221               	subwf	(onewire_read@count),w
  4573  0679                     u4285:
  4574                           
  4575  0679  1803               	skipnc
  4576  067A  2E7C               	goto	u4281
  4577  067B  2E7D               	goto	u4280
  4578  067C                     u4281:
  4579  067C  2E7F               	goto	l8196
  4580  067D                     u4280:
  4581  067D  2ED4               	goto	l8216
  4582                           	
  4583  067E                     l8194:	
  4584  067E  2ED4               	goto	l8216
  4585                           	line	55
  4586                           	
  4587  067F                     l4497:	
  4588                           	line	56
  4589                           	
  4590  067F                     l8196:	
  4591                           ;CLDTP1.c: 55: {
  4592                           ;CLDTP1.c: 56: _delay((unsigned long)((30)*(8000000/4000000.0)));
  4593                           	opt asmopt_off
  4594  067F  3013               movlw	19
  4595  0680  00F4               movwf	(??_onewire_read+0)+0,f
  4596  0681                     u4957:
  4597  0681  0BF4               decfsz	(??_onewire_read+0)+0,f
  4598  0682  2E81               	goto	u4957
  4599  0683  2E84               	nop2	;nop
  4600                           opt asmopt_on
  4601                           
  4602                           	line	59
  4603                           	
  4604  0684                     l8198:	
  4605                           ;CLDTP1.c: 59: if ((PORTB & 0b10000000) > 0)
  4606  0684  1283               	bcf	status, 5	;RP0=0, select bank0
  4607  0685  1303               	bcf	status, 6	;RP1=0, select bank0
  4608  0686  1F86               	btfss	(6),(7)&7
  4609  0687  2E89               	goto	u4291
  4610  0688  2E8A               	goto	u4290
  4611  0689                     u4291:
  4612  0689  2E8E               	goto	l4499
  4613  068A                     u4290:
  4614                           	line	61
  4615                           	
  4616  068A                     l8200:	
  4617                           ;CLDTP1.c: 60: {
  4618                           ;CLDTP1.c: 61: databit = 1;
  4619  068A  01A0               	clrf	(onewire_read@databit)
  4620  068B  1403               	bsf	status,0
  4621  068C  0DA0               	rlf	(onewire_read@databit),f
  4622                           	line	62
  4623                           ;CLDTP1.c: 62: }
  4624  068D  2E90               	goto	l8202
  4625                           	line	63
  4626                           	
  4627  068E                     l4499:	
  4628                           	line	65
  4629                           ;CLDTP1.c: 63: else
  4630                           ;CLDTP1.c: 64: {
  4631                           ;CLDTP1.c: 65: databit = 0;
  4632  068E  01A0               	clrf	(onewire_read@databit)
  4633  068F  2E90               	goto	l8202
  4634                           	line	66
  4635                           	
  4636  0690                     l4500:	
  4637                           	line	70
  4638                           	
  4639  0690                     l8202:	
  4640                           ;CLDTP1.c: 66: }
  4641                           ;CLDTP1.c: 70: data = (data >> 1);
  4642  0690  0823               	movf	(onewire_read@data),w
  4643  0691  00F4               	movwf	(??_onewire_read+0)+0
  4644  0692  1003               	clrc
  4645  0693  0C74               	rrf	(??_onewire_read+0)+0,w
  4646  0694  00F5               	movwf	(??_onewire_read+1)+0
  4647  0695  0875               	movf	(??_onewire_read+1)+0,w
  4648  0696  00A3               	movwf	(onewire_read@data)
  4649                           	line	71
  4650                           	
  4651  0697                     l8204:	
  4652                           ;CLDTP1.c: 71: if (databit > 0)
  4653  0697  0820               	movf	(onewire_read@databit),w
  4654  0698  1D03               	skipz
  4655  0699  2E9B               	goto	u4300
  4656  069A  2EA2               	goto	l4502
  4657  069B                     u4300:
  4658                           	line	73
  4659                           	
  4660  069B                     l8206:	
  4661                           ;CLDTP1.c: 72: {
  4662                           ;CLDTP1.c: 73: data = (data + 0b10000000);
  4663  069B  0823               	movf	(onewire_read@data),w
  4664  069C  3E80               	addlw	080h
  4665  069D  00F4               	movwf	(??_onewire_read+0)+0
  4666  069E  0874               	movf	(??_onewire_read+0)+0,w
  4667  069F  00A3               	movwf	(onewire_read@data)
  4668  06A0  2EA2               	goto	l4502
  4669                           	line	74
  4670                           	
  4671  06A1                     l4501:	
  4672                           	line	77
  4673                           ;CLDTP1.c: 74: }
  4674                           ;CLDTP1.c: 77: while((PORTB & 0b10000000) == 0)
  4675  06A1  2EA2               	goto	l4502
  4676                           	
  4677  06A2                     l4503:	
  4678                           	line	78
  4679                           ;CLDTP1.c: 78: {}
  4680                           	
  4681  06A2                     l4502:	
  4682                           	line	77
  4683  06A2  1F86               	btfss	(6),(7)&7
  4684  06A3  2EA5               	goto	u4311
  4685  06A4  2EA6               	goto	u4310
  4686  06A5                     u4311:
  4687  06A5  2EA2               	goto	l4502
  4688  06A6                     u4310:
  4689  06A6  2EA7               	goto	l8208
  4690                           	
  4691  06A7                     l4504:	
  4692                           	line	80
  4693                           	
  4694  06A7                     l8208:	
  4695                           ;CLDTP1.c: 80: if (count > 1)
  4696  06A7  0822               	movf	(onewire_read@count+1),w
  4697  06A8  3A80               	xorlw	80h
  4698  06A9  00FF               	movwf	btemp+1
  4699  06AA  3080               	movlw	(high(02h))^80h
  4700  06AB  027F               	subwf	btemp+1,w
  4701  06AC  1D03               	skipz
  4702  06AD  2EB0               	goto	u4325
  4703  06AE  3002               	movlw	low(02h)
  4704  06AF  0221               	subwf	(onewire_read@count),w
  4705  06B0                     u4325:
  4706                           
  4707  06B0  1C03               	skipc
  4708  06B1  2EB3               	goto	u4321
  4709  06B2  2EB4               	goto	u4320
  4710  06B3                     u4321:
  4711  06B3  2EBE               	goto	l8212
  4712  06B4                     u4320:
  4713  06B4  2EB6               	goto	l4506
  4714                           	line	82
  4715                           	
  4716  06B5                     l8210:	
  4717                           ;CLDTP1.c: 81: {
  4718                           ;CLDTP1.c: 82: while((PORTB & 0b10000000) > 0)
  4719  06B5  2EB6               	goto	l4506
  4720                           	
  4721  06B6                     l4507:	
  4722                           	line	83
  4723                           ;CLDTP1.c: 83: {}
  4724                           	
  4725  06B6                     l4506:	
  4726                           	line	82
  4727  06B6  1283               	bcf	status, 5	;RP0=0, select bank0
  4728  06B7  1303               	bcf	status, 6	;RP1=0, select bank0
  4729  06B8  1B86               	btfsc	(6),(7)&7
  4730  06B9  2EBB               	goto	u4331
  4731  06BA  2EBC               	goto	u4330
  4732  06BB                     u4331:
  4733  06BB  2EB6               	goto	l4506
  4734  06BC                     u4330:
  4735  06BC  2EBE               	goto	l8212
  4736                           	
  4737  06BD                     l4508:	
  4738  06BD  2EBE               	goto	l8212
  4739                           	line	84
  4740                           	
  4741  06BE                     l4505:	
  4742                           	line	54
  4743                           	
  4744  06BE                     l8212:	
  4745  06BE  30FF               	movlw	low(-1)
  4746  06BF  1283               	bcf	status, 5	;RP0=0, select bank0
  4747  06C0  1303               	bcf	status, 6	;RP1=0, select bank0
  4748  06C1  07A1               	addwf	(onewire_read@count),f
  4749  06C2  1803               	skipnc
  4750  06C3  0AA2               	incf	(onewire_read@count+1),f
  4751  06C4  30FF               	movlw	high(-1)
  4752  06C5  07A2               	addwf	(onewire_read@count+1),f
  4753                           	
  4754  06C6                     l8214:	
  4755  06C6  0822               	movf	(onewire_read@count+1),w
  4756  06C7  3A80               	xorlw	80h
  4757  06C8  00FF               	movwf	btemp+1
  4758  06C9  3080               	movlw	(high(01h))^80h
  4759  06CA  027F               	subwf	btemp+1,w
  4760  06CB  1D03               	skipz
  4761  06CC  2ECF               	goto	u4345
  4762  06CD  3001               	movlw	low(01h)
  4763  06CE  0221               	subwf	(onewire_read@count),w
  4764  06CF                     u4345:
  4765                           
  4766  06CF  1803               	skipnc
  4767  06D0  2ED2               	goto	u4341
  4768  06D1  2ED3               	goto	u4340
  4769  06D2                     u4341:
  4770  06D2  2E7F               	goto	l8196
  4771  06D3                     u4340:
  4772  06D3  2ED4               	goto	l8216
  4773                           	
  4774  06D4                     l4498:	
  4775                           	line	87
  4776                           	
  4777  06D4                     l8216:	
  4778                           ;CLDTP1.c: 84: }
  4779                           ;CLDTP1.c: 86: }
  4780                           ;CLDTP1.c: 87: return data;
  4781  06D4  1283               	bcf	status, 5	;RP0=0, select bank0
  4782  06D5  1303               	bcf	status, 6	;RP1=0, select bank0
  4783  06D6  0823               	movf	(onewire_read@data),w
  4784  06D7  2ED8               	goto	l4509
  4785                           	
  4786  06D8                     l8218:	
  4787                           	line	88
  4788                           	
  4789  06D8                     l4509:	
  4790  06D8  0008               	return
  4791                           	opt stack 0
  4792                           GLOBAL	__end_of_onewire_read
  4793  06D9                     	__end_of_onewire_read:
  4794 ;; =============== function _onewire_read ends ============
  4795                           
  4796                           	signat	_onewire_read,89
  4797                           	global	_onewire_write
  4798                           psect	text772,local,class=CODE,delta=2
  4799                           global __ptext772
  4800  0744                     __ptext772:
  4801                           
  4802 ;; *************** function _onewire_write *****************
  4803 ;; Defined at:
  4804 ;;		line 15 in file "C:/Users/Dave/MPLABXProjects/IO Test.X/CLDTP1.c"
  4805 ;; Parameters:    Size  Location     Type
  4806 ;;  data            1    wreg     unsigned char 
  4807 ;; Auto vars:     Size  Location     Type
  4808 ;;  data            1    0[BANK0 ] unsigned char 
  4809 ;;  lsb             1    3[BANK0 ] unsigned char 
  4810 ;;  count           2    1[BANK0 ] int 
  4811 ;; Return value:  Size  Location     Type
  4812 ;;		None               void
  4813 ;; Registers used:
  4814 ;;		wreg, status,2, status,0, btemp+1
  4815 ;; Tracked objects:
  4816 ;;		On entry : 0/0
  4817 ;;		On exit  : 0/0
  4818 ;;		Unchanged: 0/0
  4819 ;; Data sizes:     COMMON   BANK0   BANK1   BANK2
  4820 ;;      Params:         0       0       0       0
  4821 ;;      Locals:         0       4       0       0
  4822 ;;      Temps:          2       0       0       0
  4823 ;;      Totals:         2       4       0       0
  4824 ;;Total ram usage:        6 bytes
  4825 ;; Hardware stack levels used:    1
  4826 ;; Hardware stack levels required when called:    1
  4827 ;; This function calls:
  4828 ;;		Nothing
  4829 ;; This function is called by:
  4830 ;;		_onewire_sendpacket
  4831 ;; This function uses a non-reentrant model
  4832 ;;
  4833                           psect	text772
  4834                           	file	"C:/Users/Dave/MPLABXProjects/IO Test.X/CLDTP1.c"
  4835                           	line	15
  4836                           	global	__size_of_onewire_write
  4837  0068                     	__size_of_onewire_write	equ	__end_of_onewire_write-_onewire_write
  4838                           	
  4839  0744                     _onewire_write:	
  4840                           	opt	stack 4
  4841                           ; Regs used in _onewire_write: [wreg+status,2+status,0+btemp+1]
  4842                           ;onewire_write@data stored from wreg
  4843  0744  1283               	bcf	status, 5	;RP0=0, select bank0
  4844  0745  1303               	bcf	status, 6	;RP1=0, select bank0
  4845  0746  00A0               	movwf	(onewire_write@data)
  4846                           	line	16
  4847                           	
  4848  0747                     l8162:	
  4849                           ;CLDTP1.c: 16: for (int count = 8;count > 0; count--)
  4850  0747  3008               	movlw	low(08h)
  4851  0748  00A1               	movwf	(onewire_write@count)
  4852  0749  3000               	movlw	high(08h)
  4853  074A  00A2               	movwf	((onewire_write@count))+1
  4854                           	
  4855  074B                     l8164:	
  4856  074B  0822               	movf	(onewire_write@count+1),w
  4857  074C  3A80               	xorlw	80h
  4858  074D  00FF               	movwf	btemp+1
  4859  074E  3080               	movlw	(high(01h))^80h
  4860  074F  027F               	subwf	btemp+1,w
  4861  0750  1D03               	skipz
  4862  0751  2F54               	goto	u4235
  4863  0752  3001               	movlw	low(01h)
  4864  0753  0221               	subwf	(onewire_write@count),w
  4865  0754                     u4235:
  4866                           
  4867  0754  1803               	skipnc
  4868  0755  2F57               	goto	u4231
  4869  0756  2F58               	goto	u4230
  4870  0757                     u4231:
  4871  0757  2F5A               	goto	l8168
  4872  0758                     u4230:
  4873  0758  2FA7               	goto	l8186
  4874                           	
  4875  0759                     l8166:	
  4876  0759  2FA7               	goto	l8186
  4877                           	line	17
  4878                           	
  4879  075A                     l4490:	
  4880                           	line	18
  4881                           	
  4882  075A                     l8168:	
  4883                           ;CLDTP1.c: 17: {
  4884                           ;CLDTP1.c: 18: char lsb = data & 0x01;
  4885  075A  1283               	bcf	status, 5	;RP0=0, select bank0
  4886  075B  1303               	bcf	status, 6	;RP1=0, select bank0
  4887  075C  0820               	movf	(onewire_write@data),w
  4888  075D  3901               	andlw	01h
  4889  075E  00F4               	movwf	(??_onewire_write+0)+0
  4890  075F  0874               	movf	(??_onewire_write+0)+0,w
  4891  0760  00A3               	movwf	(onewire_write@lsb)
  4892                           	line	20
  4893                           	
  4894  0761                     l8170:	
  4895                           ;CLDTP1.c: 20: if (lsb > 0)
  4896  0761  0823               	movf	(onewire_write@lsb),w
  4897  0762  1D03               	skipz
  4898  0763  2F65               	goto	u4240
  4899  0764  2F69               	goto	l4492
  4900  0765                     u4240:
  4901                           	line	22
  4902                           	
  4903  0765                     l8172:	
  4904                           ;CLDTP1.c: 21: {
  4905                           ;CLDTP1.c: 22: lsb = 1;
  4906  0765  01A3               	clrf	(onewire_write@lsb)
  4907  0766  1403               	bsf	status,0
  4908  0767  0DA3               	rlf	(onewire_write@lsb),f
  4909                           	line	23
  4910                           ;CLDTP1.c: 23: }
  4911  0768  2F6A               	goto	l4493
  4912                           	line	24
  4913                           	
  4914  0769                     l4492:	
  4915                           	line	26
  4916                           ;CLDTP1.c: 24: else
  4917                           ;CLDTP1.c: 25: {
  4918                           ;CLDTP1.c: 26: lsb = 0;
  4919  0769  01A3               	clrf	(onewire_write@lsb)
  4920                           	line	27
  4921                           	
  4922  076A                     l4493:	
  4923                           	line	30
  4924                           ;CLDTP1.c: 27: }
  4925                           ;CLDTP1.c: 30: TRISB7=0;
  4926  076A  1683               	bsf	status, 5	;RP0=1, select bank1
  4927  076B  1303               	bcf	status, 6	;RP1=0, select bank1
  4928  076C  1386               	bcf	(1079/8)^080h,(1079)&7
  4929                           	line	31
  4930                           	
  4931  076D                     l8174:	
  4932                           ;CLDTP1.c: 31: _delay((unsigned long)((7)*(8000000/4000000.0)));
  4933                           	opt asmopt_off
  4934  076D  3004               movlw	4
  4935  076E  00F4               movwf	(??_onewire_write+0)+0,f
  4936  076F                     u4967:
  4937  076F  0BF4               decfsz	(??_onewire_write+0)+0,f
  4938  0770  2F6F               	goto	u4967
  4939  0771  0064               	clrwdt
  4940                           opt asmopt_on
  4941                           
  4942                           	line	34
  4943                           	
  4944  0772                     l8176:	
  4945                           ;CLDTP1.c: 34: TRISB7 = lsb;
  4946  0772  1283               	bcf	status, 5	;RP0=0, select bank0
  4947  0773  1303               	bcf	status, 6	;RP1=0, select bank0
  4948  0774  1823               	btfsc	(onewire_write@lsb),0
  4949  0775  2F77               	goto	u4251
  4950  0776  2F7B               	goto	u4250
  4951                           	
  4952  0777                     u4251:
  4953  0777  1683               	bsf	status, 5	;RP0=1, select bank1
  4954  0778  1303               	bcf	status, 6	;RP1=0, select bank1
  4955  0779  1786               	bsf	(1079/8)^080h,(1079)&7
  4956  077A  2F7E               	goto	u4264
  4957  077B                     u4250:
  4958  077B  1683               	bsf	status, 5	;RP0=1, select bank1
  4959  077C  1303               	bcf	status, 6	;RP1=0, select bank1
  4960  077D  1386               	bcf	(1079/8)^080h,(1079)&7
  4961  077E                     u4264:
  4962                           	line	35
  4963                           ;CLDTP1.c: 35: _delay((unsigned long)((55)*(8000000/4000000.0)));
  4964                           	opt asmopt_off
  4965  077E  3024               movlw	36
  4966  077F  00F4               movwf	(??_onewire_write+0)+0,f
  4967  0780                     u4977:
  4968  0780  0BF4               decfsz	(??_onewire_write+0)+0,f
  4969  0781  2F80               	goto	u4977
  4970  0782  0064               	clrwdt
  4971                           opt asmopt_on
  4972                           
  4973                           	line	39
  4974                           	
  4975  0783                     l8178:	
  4976                           ;CLDTP1.c: 39: TRISB7 = 1;
  4977  0783  1683               	bsf	status, 5	;RP0=1, select bank1
  4978  0784  1303               	bcf	status, 6	;RP1=0, select bank1
  4979  0785  1786               	bsf	(1079/8)^080h,(1079)&7
  4980                           	line	42
  4981                           ;CLDTP1.c: 42: _delay((unsigned long)((5)*(8000000/4000000.0)));
  4982                           	opt asmopt_off
  4983  0786  3003               movlw	3
  4984  0787  00F4               movwf	(??_onewire_write+0)+0,f
  4985  0788                     u4987:
  4986  0788  0BF4               decfsz	(??_onewire_write+0)+0,f
  4987  0789  2F88               	goto	u4987
  4988                           opt asmopt_on
  4989                           
  4990                           	line	45
  4991                           	
  4992  078A                     l8180:	
  4993                           ;CLDTP1.c: 45: data = data>>1;
  4994  078A  1283               	bcf	status, 5	;RP0=0, select bank0
  4995  078B  1303               	bcf	status, 6	;RP1=0, select bank0
  4996  078C  0820               	movf	(onewire_write@data),w
  4997  078D  00F4               	movwf	(??_onewire_write+0)+0
  4998  078E  1003               	clrc
  4999  078F  0C74               	rrf	(??_onewire_write+0)+0,w
  5000  0790  00F5               	movwf	(??_onewire_write+1)+0
  5001  0791  0875               	movf	(??_onewire_write+1)+0,w
  5002  0792  00A0               	movwf	(onewire_write@data)
  5003                           	line	16
  5004                           	
  5005  0793                     l8182:	
  5006  0793  30FF               	movlw	low(-1)
  5007  0794  07A1               	addwf	(onewire_write@count),f
  5008  0795  1803               	skipnc
  5009  0796  0AA2               	incf	(onewire_write@count+1),f
  5010  0797  30FF               	movlw	high(-1)
  5011  0798  07A2               	addwf	(onewire_write@count+1),f
  5012                           	
  5013  0799                     l8184:	
  5014  0799  0822               	movf	(onewire_write@count+1),w
  5015  079A  3A80               	xorlw	80h
  5016  079B  00FF               	movwf	btemp+1
  5017  079C  3080               	movlw	(high(01h))^80h
  5018  079D  027F               	subwf	btemp+1,w
  5019  079E  1D03               	skipz
  5020  079F  2FA2               	goto	u4275
  5021  07A0  3001               	movlw	low(01h)
  5022  07A1  0221               	subwf	(onewire_write@count),w
  5023  07A2                     u4275:
  5024                           
  5025  07A2  1803               	skipnc
  5026  07A3  2FA5               	goto	u4271
  5027  07A4  2FA6               	goto	u4270
  5028  07A5                     u4271:
  5029  07A5  2F5A               	goto	l8168
  5030  07A6                     u4270:
  5031  07A6  2FA7               	goto	l8186
  5032                           	
  5033  07A7                     l4491:	
  5034                           	line	47
  5035                           	
  5036  07A7                     l8186:	
  5037                           ;CLDTP1.c: 46: }
  5038                           ;CLDTP1.c: 47: _delay((unsigned long)((5)*(8000000/4000000.0)));
  5039                           	opt asmopt_off
  5040  07A7  3003               movlw	3
  5041  07A8  00F4               movwf	(??_onewire_write+0)+0,f
  5042  07A9                     u4997:
  5043  07A9  0BF4               decfsz	(??_onewire_write+0)+0,f
  5044  07AA  2FA9               	goto	u4997
  5045                           opt asmopt_on
  5046                           
  5047                           	line	48
  5048                           	
  5049  07AB                     l4494:	
  5050  07AB  0008               	return
  5051                           	opt stack 0
  5052                           GLOBAL	__end_of_onewire_write
  5053  07AC                     	__end_of_onewire_write:
  5054 ;; =============== function _onewire_write ends ============
  5055                           
  5056                           	signat	_onewire_write,4216
  5057                           	global	_ds_read
  5058                           psect	text773,local,class=CODE,delta=2
  5059                           global __ptext773
  5060  05F3                     __ptext773:
  5061                           
  5062 ;; *************** function _ds_read *****************
  5063 ;; Defined at:
  5064 ;;		line 105 in file "C:/Users/Dave/MPLABXProjects/IO Test.X/ds18b20.c"
  5065 ;; Parameters:    Size  Location     Type
  5066 ;;		None
  5067 ;; Auto vars:     Size  Location     Type
  5068 ;;  count           2    1[BANK0 ] int 
  5069 ;;  data            1    3[BANK0 ] unsigned char 
  5070 ;;  databit         1    0[BANK0 ] unsigned char 
  5071 ;; Return value:  Size  Location     Type
  5072 ;;                  1    wreg      unsigned char 
  5073 ;; Registers used:
  5074 ;;		wreg, status,2, status,0, btemp+1
  5075 ;; Tracked objects:
  5076 ;;		On entry : 0/0
  5077 ;;		On exit  : 0/0
  5078 ;;		Unchanged: 0/0
  5079 ;; Data sizes:     COMMON   BANK0   BANK1   BANK2
  5080 ;;      Params:         0       0       0       0
  5081 ;;      Locals:         0       4       0       0
  5082 ;;      Temps:          2       0       0       0
  5083 ;;      Totals:         2       4       0       0
  5084 ;;Total ram usage:        6 bytes
  5085 ;; Hardware stack levels used:    1
  5086 ;; Hardware stack levels required when called:    1
  5087 ;; This function calls:
  5088 ;;		Nothing
  5089 ;; This function is called by:
  5090 ;;		_ds_gettemperature
  5091 ;;		_ds_checkCRC
  5092 ;; This function uses a non-reentrant model
  5093 ;;
  5094                           psect	text773
  5095                           	file	"C:/Users/Dave/MPLABXProjects/IO Test.X/ds18b20.c"
  5096                           	line	105
  5097                           	global	__size_of_ds_read
  5098  0075                     	__size_of_ds_read	equ	__end_of_ds_read-_ds_read
  5099                           	
  5100  05F3                     _ds_read:	
  5101                           	opt	stack 3
  5102                           ; Regs used in _ds_read: [wreg+status,2+status,0+btemp+1]
  5103                           	line	106
  5104                           	
  5105  05F3                     l8124:	
  5106                           ;ds18b20.c: 106: char data = 0x0;
  5107  05F3  1283               	bcf	status, 5	;RP0=0, select bank0
  5108  05F4  1303               	bcf	status, 6	;RP1=0, select bank0
  5109  05F5  01A3               	clrf	(ds_read@data)
  5110                           	line	107
  5111                           ;ds18b20.c: 107: char databit = 0;
  5112  05F6  01A0               	clrf	(ds_read@databit)
  5113                           	line	108
  5114                           	
  5115  05F7                     l8126:	
  5116                           ;ds18b20.c: 108: for (int count = 8;count > 0;count--)
  5117  05F7  3008               	movlw	low(08h)
  5118  05F8  00A1               	movwf	(ds_read@count)
  5119  05F9  3000               	movlw	high(08h)
  5120  05FA  00A2               	movwf	((ds_read@count))+1
  5121                           	
  5122  05FB                     l8128:	
  5123  05FB  0822               	movf	(ds_read@count+1),w
  5124  05FC  3A80               	xorlw	80h
  5125  05FD  00FF               	movwf	btemp+1
  5126  05FE  3080               	movlw	(high(01h))^80h
  5127  05FF  027F               	subwf	btemp+1,w
  5128  0600  1D03               	skipz
  5129  0601  2E04               	goto	u4195
  5130  0602  3001               	movlw	low(01h)
  5131  0603  0221               	subwf	(ds_read@count),w
  5132  0604                     u4195:
  5133                           
  5134  0604  1803               	skipnc
  5135  0605  2E07               	goto	u4191
  5136  0606  2E08               	goto	u4190
  5137  0607                     u4191:
  5138  0607  2E0A               	goto	l8132
  5139  0608                     u4190:
  5140  0608  2E5F               	goto	l8158
  5141                           	
  5142  0609                     l8130:	
  5143  0609  2E5F               	goto	l8158
  5144                           	line	109
  5145                           	
  5146  060A                     l2603:	
  5147                           	line	111
  5148                           	
  5149  060A                     l8132:	
  5150                           ;ds18b20.c: 109: {
  5151                           ;ds18b20.c: 111: TRISC=0;
  5152  060A  1683               	bsf	status, 5	;RP0=1, select bank1
  5153  060B  1303               	bcf	status, 6	;RP1=0, select bank1
  5154  060C  0187               	clrf	(135)^080h	;volatile
  5155                           	line	112
  5156                           	
  5157  060D                     l8134:	
  5158                           ;ds18b20.c: 112: _delay((unsigned long)((6)*(8000000/4000000.0)));
  5159                           	opt asmopt_off
  5160  060D  3003               movlw	3
  5161  060E  00F4               movwf	(??_ds_read+0)+0,f
  5162  060F                     u5007:
  5163  060F  0BF4               decfsz	(??_ds_read+0)+0,f
  5164  0610  2E0F               	goto	u5007
  5165  0611  2E12               	nop2	;nop
  5166                           opt asmopt_on
  5167                           
  5168                           	line	115
  5169                           	
  5170  0612                     l8136:	
  5171                           ;ds18b20.c: 115: TRISC = TRISC | DataBitMap;
  5172  0612  1683               	bsf	status, 5	;RP0=1, select bank1
  5173  0613  1303               	bcf	status, 6	;RP1=0, select bank1
  5174  0614  0807               	movf	(135)^080h,w	;volatile
  5175  0615  1283               	bcf	status, 5	;RP0=0, select bank0
  5176  0616  1303               	bcf	status, 6	;RP1=0, select bank0
  5177  0617  0443               	iorwf	(_DataBitMap),w
  5178  0618  1683               	bsf	status, 5	;RP0=1, select bank1
  5179  0619  1303               	bcf	status, 6	;RP1=0, select bank1
  5180  061A  0087               	movwf	(135)^080h	;volatile
  5181                           	line	116
  5182                           	
  5183  061B                     l8138:	
  5184                           ;ds18b20.c: 116: _delay((unsigned long)((6)*(8000000/4000000.0)));
  5185                           	opt asmopt_off
  5186  061B  3003               movlw	3
  5187  061C  00F4               movwf	(??_ds_read+0)+0,f
  5188  061D                     u5017:
  5189  061D  0BF4               decfsz	(??_ds_read+0)+0,f
  5190  061E  2E1D               	goto	u5017
  5191  061F  2E20               	nop2	;nop
  5192                           opt asmopt_on
  5193                           
  5194                           	line	119
  5195                           	
  5196  0620                     l8140:	
  5197                           ;ds18b20.c: 119: if ((PORTC & DataBitMap) > 0)
  5198  0620  1283               	bcf	status, 5	;RP0=0, select bank0
  5199  0621  1303               	bcf	status, 6	;RP1=0, select bank0
  5200  0622  0807               	movf	(7),w	;volatile
  5201  0623  0543               	andwf	(_DataBitMap),w
  5202  0624  1903               	btfsc	status,2
  5203  0625  2E27               	goto	u4201
  5204  0626  2E28               	goto	u4200
  5205  0627                     u4201:
  5206  0627  2E2C               	goto	l2605
  5207  0628                     u4200:
  5208                           	line	121
  5209                           	
  5210  0628                     l8142:	
  5211                           ;ds18b20.c: 120: {
  5212                           ;ds18b20.c: 121: databit = 1;
  5213  0628  01A0               	clrf	(ds_read@databit)
  5214  0629  1403               	bsf	status,0
  5215  062A  0DA0               	rlf	(ds_read@databit),f
  5216                           	line	122
  5217                           ;ds18b20.c: 122: }
  5218  062B  2E2E               	goto	l8144
  5219                           	line	123
  5220                           	
  5221  062C                     l2605:	
  5222                           	line	125
  5223                           ;ds18b20.c: 123: else
  5224                           ;ds18b20.c: 124: {
  5225                           ;ds18b20.c: 125: databit = 0;
  5226  062C  01A0               	clrf	(ds_read@databit)
  5227  062D  2E2E               	goto	l8144
  5228                           	line	126
  5229                           	
  5230  062E                     l2606:	
  5231                           	line	130
  5232                           	
  5233  062E                     l8144:	
  5234                           ;ds18b20.c: 126: }
  5235                           ;ds18b20.c: 130: _delay((unsigned long)((50)*(8000000/4000000.0)));
  5236                           	opt asmopt_off
  5237  062E  3021               movlw	33
  5238  062F  00F4               movwf	(??_ds_read+0)+0,f
  5239  0630                     u5027:
  5240  0630  0BF4               decfsz	(??_ds_read+0)+0,f
  5241  0631  2E30               	goto	u5027
  5242                           opt asmopt_on
  5243                           
  5244                           	line	137
  5245                           	
  5246  0632                     l8146:	
  5247                           ;ds18b20.c: 137: data = (data >> 1);
  5248  0632  1283               	bcf	status, 5	;RP0=0, select bank0
  5249  0633  1303               	bcf	status, 6	;RP1=0, select bank0
  5250  0634  0823               	movf	(ds_read@data),w
  5251  0635  00F4               	movwf	(??_ds_read+0)+0
  5252  0636  1003               	clrc
  5253  0637  0C74               	rrf	(??_ds_read+0)+0,w
  5254  0638  00F5               	movwf	(??_ds_read+1)+0
  5255  0639  0875               	movf	(??_ds_read+1)+0,w
  5256  063A  00A3               	movwf	(ds_read@data)
  5257                           	line	138
  5258                           	
  5259  063B                     l8148:	
  5260                           ;ds18b20.c: 138: if (databit > 0)
  5261  063B  0820               	movf	(ds_read@databit),w
  5262  063C  1D03               	skipz
  5263  063D  2E3F               	goto	u4210
  5264  063E  2E45               	goto	l8152
  5265  063F                     u4210:
  5266                           	line	140
  5267                           	
  5268  063F                     l8150:	
  5269                           ;ds18b20.c: 139: {
  5270                           ;ds18b20.c: 140: data = (data + 0b10000000);
  5271  063F  0823               	movf	(ds_read@data),w
  5272  0640  3E80               	addlw	080h
  5273  0641  00F4               	movwf	(??_ds_read+0)+0
  5274  0642  0874               	movf	(??_ds_read+0)+0,w
  5275  0643  00A3               	movwf	(ds_read@data)
  5276  0644  2E45               	goto	l8152
  5277                           	line	141
  5278                           	
  5279  0645                     l2607:	
  5280                           	line	142
  5281                           	
  5282  0645                     l8152:	
  5283                           ;ds18b20.c: 141: }
  5284                           ;ds18b20.c: 142: _delay((unsigned long)((5)*(8000000/4000000.0)));
  5285                           	opt asmopt_off
  5286  0645  3003               movlw	3
  5287  0646  00F4               movwf	(??_ds_read+0)+0,f
  5288  0647                     u5037:
  5289  0647  0BF4               decfsz	(??_ds_read+0)+0,f
  5290  0648  2E47               	goto	u5037
  5291                           opt asmopt_on
  5292                           
  5293                           	line	108
  5294                           	
  5295  0649                     l8154:	
  5296  0649  30FF               	movlw	low(-1)
  5297  064A  1283               	bcf	status, 5	;RP0=0, select bank0
  5298  064B  1303               	bcf	status, 6	;RP1=0, select bank0
  5299  064C  07A1               	addwf	(ds_read@count),f
  5300  064D  1803               	skipnc
  5301  064E  0AA2               	incf	(ds_read@count+1),f
  5302  064F  30FF               	movlw	high(-1)
  5303  0650  07A2               	addwf	(ds_read@count+1),f
  5304                           	
  5305  0651                     l8156:	
  5306  0651  0822               	movf	(ds_read@count+1),w
  5307  0652  3A80               	xorlw	80h
  5308  0653  00FF               	movwf	btemp+1
  5309  0654  3080               	movlw	(high(01h))^80h
  5310  0655  027F               	subwf	btemp+1,w
  5311  0656  1D03               	skipz
  5312  0657  2E5A               	goto	u4225
  5313  0658  3001               	movlw	low(01h)
  5314  0659  0221               	subwf	(ds_read@count),w
  5315  065A                     u4225:
  5316                           
  5317  065A  1803               	skipnc
  5318  065B  2E5D               	goto	u4221
  5319  065C  2E5E               	goto	u4220
  5320  065D                     u4221:
  5321  065D  2E0A               	goto	l8132
  5322  065E                     u4220:
  5323  065E  2E5F               	goto	l8158
  5324                           	
  5325  065F                     l2604:	
  5326                           	line	144
  5327                           	
  5328  065F                     l8158:	
  5329                           ;ds18b20.c: 143: }
  5330                           ;ds18b20.c: 144: _delay((unsigned long)((5)*(8000000/4000000.0)));
  5331                           	opt asmopt_off
  5332  065F  3003               movlw	3
  5333  0660  00F4               movwf	(??_ds_read+0)+0,f
  5334  0661                     u5047:
  5335  0661  0BF4               decfsz	(??_ds_read+0)+0,f
  5336  0662  2E61               	goto	u5047
  5337                           opt asmopt_on
  5338                           
  5339                           	line	145
  5340                           ;ds18b20.c: 145: return(data);
  5341  0663  1283               	bcf	status, 5	;RP0=0, select bank0
  5342  0664  1303               	bcf	status, 6	;RP1=0, select bank0
  5343  0665  0823               	movf	(ds_read@data),w
  5344  0666  2E67               	goto	l2608
  5345                           	
  5346  0667                     l8160:	
  5347                           	line	146
  5348                           	
  5349  0667                     l2608:	
  5350  0667  0008               	return
  5351                           	opt stack 0
  5352                           GLOBAL	__end_of_ds_read
  5353  0668                     	__end_of_ds_read:
  5354 ;; =============== function _ds_read ends ============
  5355                           
  5356                           	signat	_ds_read,89
  5357                           	global	_ds_write
  5358                           psect	text774,local,class=CODE,delta=2
  5359                           global __ptext774
  5360  06D9                     __ptext774:
  5361                           
  5362 ;; *************** function _ds_write *****************
  5363 ;; Defined at:
  5364 ;;		line 68 in file "C:/Users/Dave/MPLABXProjects/IO Test.X/ds18b20.c"
  5365 ;; Parameters:    Size  Location     Type
  5366 ;;  data            1    wreg     unsigned char 
  5367 ;; Auto vars:     Size  Location     Type
  5368 ;;  data            1    0[BANK0 ] unsigned char 
  5369 ;;  lsb             1    3[BANK0 ] unsigned char 
  5370 ;;  count           2    1[BANK0 ] int 
  5371 ;; Return value:  Size  Location     Type
  5372 ;;		None               void
  5373 ;; Registers used:
  5374 ;;		wreg, status,2, status,0, btemp+1
  5375 ;; Tracked objects:
  5376 ;;		On entry : 0/0
  5377 ;;		On exit  : 0/0
  5378 ;;		Unchanged: 0/0
  5379 ;; Data sizes:     COMMON   BANK0   BANK1   BANK2
  5380 ;;      Params:         0       0       0       0
  5381 ;;      Locals:         0       4       0       0
  5382 ;;      Temps:          2       0       0       0
  5383 ;;      Totals:         2       4       0       0
  5384 ;;Total ram usage:        6 bytes
  5385 ;; Hardware stack levels used:    1
  5386 ;; Hardware stack levels required when called:    1
  5387 ;; This function calls:
  5388 ;;		Nothing
  5389 ;; This function is called by:
  5390 ;;		_ds_gettemperature
  5391 ;;		_ds_checkCRC
  5392 ;; This function uses a non-reentrant model
  5393 ;;
  5394                           psect	text774
  5395                           	file	"C:/Users/Dave/MPLABXProjects/IO Test.X/ds18b20.c"
  5396                           	line	68
  5397                           	global	__size_of_ds_write
  5398  006B                     	__size_of_ds_write	equ	__end_of_ds_write-_ds_write
  5399                           	
  5400  06D9                     _ds_write:	
  5401                           	opt	stack 3
  5402                           ; Regs used in _ds_write: [wreg+status,2+status,0+btemp+1]
  5403                           ;ds_write@data stored from wreg
  5404  06D9  1283               	bcf	status, 5	;RP0=0, select bank0
  5405  06DA  1303               	bcf	status, 6	;RP1=0, select bank0
  5406  06DB  00A0               	movwf	(ds_write@data)
  5407                           	line	69
  5408                           	
  5409  06DC                     l8092:	
  5410                           ;ds18b20.c: 69: for (int count = 8;count > 0; count--)
  5411  06DC  3008               	movlw	low(08h)
  5412  06DD  00A1               	movwf	(ds_write@count)
  5413  06DE  3000               	movlw	high(08h)
  5414  06DF  00A2               	movwf	((ds_write@count))+1
  5415                           	
  5416  06E0                     l8094:	
  5417  06E0  0822               	movf	(ds_write@count+1),w
  5418  06E1  3A80               	xorlw	80h
  5419  06E2  00FF               	movwf	btemp+1
  5420  06E3  3080               	movlw	(high(01h))^80h
  5421  06E4  027F               	subwf	btemp+1,w
  5422  06E5  1D03               	skipz
  5423  06E6  2EE9               	goto	u4165
  5424  06E7  3001               	movlw	low(01h)
  5425  06E8  0221               	subwf	(ds_write@count),w
  5426  06E9                     u4165:
  5427                           
  5428  06E9  1803               	skipnc
  5429  06EA  2EEC               	goto	u4161
  5430  06EB  2EED               	goto	u4160
  5431  06EC                     u4161:
  5432  06EC  2EEF               	goto	l8098
  5433  06ED                     u4160:
  5434  06ED  2F3F               	goto	l8122
  5435                           	
  5436  06EE                     l8096:	
  5437  06EE  2F3F               	goto	l8122
  5438                           	line	70
  5439                           	
  5440  06EF                     l2596:	
  5441                           	line	71
  5442                           	
  5443  06EF                     l8098:	
  5444                           ;ds18b20.c: 70: {
  5445                           ;ds18b20.c: 71: char lsb = data & 0x01;
  5446  06EF  1283               	bcf	status, 5	;RP0=0, select bank0
  5447  06F0  1303               	bcf	status, 6	;RP1=0, select bank0
  5448  06F1  0820               	movf	(ds_write@data),w
  5449  06F2  3901               	andlw	01h
  5450  06F3  00F4               	movwf	(??_ds_write+0)+0
  5451  06F4  0874               	movf	(??_ds_write+0)+0,w
  5452  06F5  00A3               	movwf	(ds_write@lsb)
  5453                           	line	73
  5454                           	
  5455  06F6                     l8100:	
  5456                           ;ds18b20.c: 73: if (lsb > 0)
  5457  06F6  0823               	movf	(ds_write@lsb),w
  5458  06F7  1D03               	skipz
  5459  06F8  2EFA               	goto	u4170
  5460  06F9  2EFF               	goto	l2598
  5461  06FA                     u4170:
  5462                           	line	75
  5463                           	
  5464  06FA                     l8102:	
  5465                           ;ds18b20.c: 74: {
  5466                           ;ds18b20.c: 75: lsb = 0b11111111;
  5467  06FA  30FF               	movlw	(0FFh)
  5468  06FB  00F4               	movwf	(??_ds_write+0)+0
  5469  06FC  0874               	movf	(??_ds_write+0)+0,w
  5470  06FD  00A3               	movwf	(ds_write@lsb)
  5471                           	line	76
  5472                           ;ds18b20.c: 76: }
  5473  06FE  2F01               	goto	l8104
  5474                           	line	77
  5475                           	
  5476  06FF                     l2598:	
  5477                           	line	79
  5478                           ;ds18b20.c: 77: else
  5479                           ;ds18b20.c: 78: {
  5480                           ;ds18b20.c: 79: lsb = 0b00000000;
  5481  06FF  01A3               	clrf	(ds_write@lsb)
  5482  0700  2F01               	goto	l8104
  5483                           	line	80
  5484                           	
  5485  0701                     l2599:	
  5486                           	line	83
  5487                           	
  5488  0701                     l8104:	
  5489                           ;ds18b20.c: 80: }
  5490                           ;ds18b20.c: 83: TRISC=0;
  5491  0701  1683               	bsf	status, 5	;RP0=1, select bank1
  5492  0702  1303               	bcf	status, 6	;RP1=0, select bank1
  5493  0703  0187               	clrf	(135)^080h	;volatile
  5494                           	line	84
  5495                           	
  5496  0704                     l8106:	
  5497                           ;ds18b20.c: 84: _delay((unsigned long)((7)*(8000000/4000000.0)));
  5498                           	opt asmopt_off
  5499  0704  3004               movlw	4
  5500  0705  00F4               movwf	(??_ds_write+0)+0,f
  5501  0706                     u5057:
  5502  0706  0BF4               decfsz	(??_ds_write+0)+0,f
  5503  0707  2F06               	goto	u5057
  5504  0708  0064               	clrwdt
  5505                           opt asmopt_on
  5506                           
  5507                           	line	87
  5508                           	
  5509  0709                     l8108:	
  5510                           ;ds18b20.c: 87: TRISC = lsb & DataBitMap;
  5511  0709  1283               	bcf	status, 5	;RP0=0, select bank0
  5512  070A  1303               	bcf	status, 6	;RP1=0, select bank0
  5513  070B  0823               	movf	(ds_write@lsb),w
  5514  070C  0543               	andwf	(_DataBitMap),w
  5515  070D  1683               	bsf	status, 5	;RP0=1, select bank1
  5516  070E  1303               	bcf	status, 6	;RP1=0, select bank1
  5517  070F  0087               	movwf	(135)^080h	;volatile
  5518                           	line	88
  5519                           	
  5520  0710                     l8110:	
  5521                           ;ds18b20.c: 88: _delay((unsigned long)((55)*(8000000/4000000.0)));
  5522                           	opt asmopt_off
  5523  0710  3024               movlw	36
  5524  0711  00F4               movwf	(??_ds_write+0)+0,f
  5525  0712                     u5067:
  5526  0712  0BF4               decfsz	(??_ds_write+0)+0,f
  5527  0713  2F12               	goto	u5067
  5528  0714  0064               	clrwdt
  5529                           opt asmopt_on
  5530                           
  5531                           	line	92
  5532                           	
  5533  0715                     l8112:	
  5534                           ;ds18b20.c: 92: TRISC = TRISC | DataBitMap;
  5535  0715  1683               	bsf	status, 5	;RP0=1, select bank1
  5536  0716  1303               	bcf	status, 6	;RP1=0, select bank1
  5537  0717  0807               	movf	(135)^080h,w	;volatile
  5538  0718  1283               	bcf	status, 5	;RP0=0, select bank0
  5539  0719  1303               	bcf	status, 6	;RP1=0, select bank0
  5540  071A  0443               	iorwf	(_DataBitMap),w
  5541  071B  1683               	bsf	status, 5	;RP0=1, select bank1
  5542  071C  1303               	bcf	status, 6	;RP1=0, select bank1
  5543  071D  0087               	movwf	(135)^080h	;volatile
  5544                           	line	95
  5545                           	
  5546  071E                     l8114:	
  5547                           ;ds18b20.c: 95: _delay((unsigned long)((5)*(8000000/4000000.0)));
  5548                           	opt asmopt_off
  5549  071E  3003               movlw	3
  5550  071F  00F4               movwf	(??_ds_write+0)+0,f
  5551  0720                     u5077:
  5552  0720  0BF4               decfsz	(??_ds_write+0)+0,f
  5553  0721  2F20               	goto	u5077
  5554                           opt asmopt_on
  5555                           
  5556                           	line	98
  5557                           	
  5558  0722                     l8116:	
  5559                           ;ds18b20.c: 98: data = data>>1;
  5560  0722  1283               	bcf	status, 5	;RP0=0, select bank0
  5561  0723  1303               	bcf	status, 6	;RP1=0, select bank0
  5562  0724  0820               	movf	(ds_write@data),w
  5563  0725  00F4               	movwf	(??_ds_write+0)+0
  5564  0726  1003               	clrc
  5565  0727  0C74               	rrf	(??_ds_write+0)+0,w
  5566  0728  00F5               	movwf	(??_ds_write+1)+0
  5567  0729  0875               	movf	(??_ds_write+1)+0,w
  5568  072A  00A0               	movwf	(ds_write@data)
  5569                           	line	69
  5570                           	
  5571  072B                     l8118:	
  5572  072B  30FF               	movlw	low(-1)
  5573  072C  07A1               	addwf	(ds_write@count),f
  5574  072D  1803               	skipnc
  5575  072E  0AA2               	incf	(ds_write@count+1),f
  5576  072F  30FF               	movlw	high(-1)
  5577  0730  07A2               	addwf	(ds_write@count+1),f
  5578                           	
  5579  0731                     l8120:	
  5580  0731  0822               	movf	(ds_write@count+1),w
  5581  0732  3A80               	xorlw	80h
  5582  0733  00FF               	movwf	btemp+1
  5583  0734  3080               	movlw	(high(01h))^80h
  5584  0735  027F               	subwf	btemp+1,w
  5585  0736  1D03               	skipz
  5586  0737  2F3A               	goto	u4185
  5587  0738  3001               	movlw	low(01h)
  5588  0739  0221               	subwf	(ds_write@count),w
  5589  073A                     u4185:
  5590                           
  5591  073A  1803               	skipnc
  5592  073B  2F3D               	goto	u4181
  5593  073C  2F3E               	goto	u4180
  5594  073D                     u4181:
  5595  073D  2EEF               	goto	l8098
  5596  073E                     u4180:
  5597  073E  2F3F               	goto	l8122
  5598                           	
  5599  073F                     l2597:	
  5600                           	line	100
  5601                           	
  5602  073F                     l8122:	
  5603                           ;ds18b20.c: 99: }
  5604                           ;ds18b20.c: 100: _delay((unsigned long)((5)*(8000000/4000000.0)));
  5605                           	opt asmopt_off
  5606  073F  3003               movlw	3
  5607  0740  00F4               movwf	(??_ds_write+0)+0,f
  5608  0741                     u5087:
  5609  0741  0BF4               decfsz	(??_ds_write+0)+0,f
  5610  0742  2F41               	goto	u5087
  5611                           opt asmopt_on
  5612                           
  5613                           	line	102
  5614                           	
  5615  0743                     l2600:	
  5616  0743  0008               	return
  5617                           	opt stack 0
  5618                           GLOBAL	__end_of_ds_write
  5619  0744                     	__end_of_ds_write:
  5620 ;; =============== function _ds_write ends ============
  5621                           
  5622                           	signat	_ds_write,4216
  5623                           	global	_ds_reset
  5624                           psect	text775,local,class=CODE,delta=2
  5625                           global __ptext775
  5626  0F57                     __ptext775:
  5627                           
  5628 ;; *************** function _ds_reset *****************
  5629 ;; Defined at:
  5630 ;;		line 23 in file "C:/Users/Dave/MPLABXProjects/IO Test.X/ds18b20.c"
  5631 ;; Parameters:    Size  Location     Type
  5632 ;;		None
  5633 ;; Auto vars:     Size  Location     Type
  5634 ;;		None
  5635 ;; Return value:  Size  Location     Type
  5636 ;;		None               void
  5637 ;; Registers used:
  5638 ;;		wreg, status,2, status,0
  5639 ;; Tracked objects:
  5640 ;;		On entry : 0/0
  5641 ;;		On exit  : 0/0
  5642 ;;		Unchanged: 0/0
  5643 ;; Data sizes:     COMMON   BANK0   BANK1   BANK2
  5644 ;;      Params:         0       0       0       0
  5645 ;;      Locals:         0       0       0       0
  5646 ;;      Temps:          1       0       0       0
  5647 ;;      Totals:         1       0       0       0
  5648 ;;Total ram usage:        1 bytes
  5649 ;; Hardware stack levels used:    1
  5650 ;; Hardware stack levels required when called:    1
  5651 ;; This function calls:
  5652 ;;		Nothing
  5653 ;; This function is called by:
  5654 ;;		_ds_gettemperature
  5655 ;;		_ds_checkCRC
  5656 ;; This function uses a non-reentrant model
  5657 ;;
  5658                           psect	text775
  5659                           	file	"C:/Users/Dave/MPLABXProjects/IO Test.X/ds18b20.c"
  5660                           	line	23
  5661                           	global	__size_of_ds_reset
  5662  0054                     	__size_of_ds_reset	equ	__end_of_ds_reset-_ds_reset
  5663                           	
  5664  0F57                     _ds_reset:	
  5665                           	opt	stack 3
  5666                           ; Regs used in _ds_reset: [wreg+status,2+status,0]
  5667                           	line	25
  5668                           	
  5669  0F57                     l7470:	
  5670                           ;ds18b20.c: 25: TRISC = TRISC | DataBitMap;
  5671  0F57  1683               	bsf	status, 5	;RP0=1, select bank1
  5672  0F58  1303               	bcf	status, 6	;RP1=0, select bank1
  5673  0F59  0807               	movf	(135)^080h,w	;volatile
  5674  0F5A  1283               	bcf	status, 5	;RP0=0, select bank0
  5675  0F5B  1303               	bcf	status, 6	;RP1=0, select bank0
  5676  0F5C  0443               	iorwf	(_DataBitMap),w
  5677  0F5D  1683               	bsf	status, 5	;RP0=1, select bank1
  5678  0F5E  1303               	bcf	status, 6	;RP1=0, select bank1
  5679  0F5F  0087               	movwf	(135)^080h	;volatile
  5680                           	line	26
  5681                           	
  5682  0F60                     l7472:	
  5683                           ;ds18b20.c: 26: PORTC = 0b00000000;
  5684  0F60  1283               	bcf	status, 5	;RP0=0, select bank0
  5685  0F61  1303               	bcf	status, 6	;RP1=0, select bank0
  5686  0F62  0187               	clrf	(7)	;volatile
  5687                           	line	29
  5688                           	
  5689  0F63                     l7474:	
  5690                           ;ds18b20.c: 29: TMR1ON = 0;
  5691  0F63  1010               	bcf	(128/8),(128)&7
  5692                           	line	30
  5693                           	
  5694  0F64                     l7476:	
  5695                           ;ds18b20.c: 30: DS18b20TimeOut = 0;
  5696  0F64  1179               	bcf	(_DS18b20TimeOut/8),(_DS18b20TimeOut)&7
  5697                           	line	31
  5698                           	
  5699  0F65                     l7478:	
  5700                           ;ds18b20.c: 31: TMR1H = 0x0;
  5701  0F65  018F               	clrf	(15)	;volatile
  5702                           	line	32
  5703                           	
  5704  0F66                     l7480:	
  5705                           ;ds18b20.c: 32: TMR1L = 0x0;
  5706  0F66  018E               	clrf	(14)	;volatile
  5707                           	line	33
  5708                           	
  5709  0F67                     l7482:	
  5710                           ;ds18b20.c: 33: T1CON = 0b00110000;
  5711  0F67  3030               	movlw	(030h)
  5712  0F68  0090               	movwf	(16)	;volatile
  5713                           	line	34
  5714                           	
  5715  0F69                     l7484:	
  5716                           ;ds18b20.c: 34: PIE1 = 0b00000001;
  5717  0F69  3001               	movlw	(01h)
  5718  0F6A  1683               	bsf	status, 5	;RP0=1, select bank1
  5719  0F6B  1303               	bcf	status, 6	;RP1=0, select bank1
  5720  0F6C  008C               	movwf	(140)^080h	;volatile
  5721                           	line	35
  5722                           	
  5723  0F6D                     l7486:	
  5724                           ;ds18b20.c: 35: INTCON = 0b11000000;
  5725  0F6D  30C0               	movlw	(0C0h)
  5726  0F6E  008B               	movwf	(11)	;volatile
  5727                           	line	36
  5728                           	
  5729  0F6F                     l7488:	
  5730                           ;ds18b20.c: 36: TMR1ON = 1;
  5731  0F6F  1283               	bcf	status, 5	;RP0=0, select bank0
  5732  0F70  1303               	bcf	status, 6	;RP1=0, select bank0
  5733  0F71  1410               	bsf	(128/8),(128)&7
  5734                           	line	42
  5735                           	
  5736  0F72                     l7490:	
  5737                           ;ds18b20.c: 42: TRISC = 0;
  5738  0F72  1683               	bsf	status, 5	;RP0=1, select bank1
  5739  0F73  1303               	bcf	status, 6	;RP1=0, select bank1
  5740  0F74  0187               	clrf	(135)^080h	;volatile
  5741                           	line	43
  5742                           	
  5743  0F75                     l7492:	
  5744                           ;ds18b20.c: 43: _delay((unsigned long)((480)*(8000000/4000000.0)));
  5745                           	opt asmopt_off
  5746  0F75  3089               movlw	137
  5747  0F76  00F4               movwf	(??_ds_reset+0)+0,f
  5748  0F77                     u5097:
  5749  0F77  2F78               	nop2
  5750  0F78  2F79               	nop2
  5751  0F79  0BF4               decfsz	(??_ds_reset+0)+0,f
  5752  0F7A  2F77               	goto	u5097
  5753                           opt asmopt_on
  5754                           
  5755                           	line	47
  5756                           ;ds18b20.c: 47: TRISC = TRISC | DataBitMap;
  5757  0F7B  1683               	bsf	status, 5	;RP0=1, select bank1
  5758  0F7C  1303               	bcf	status, 6	;RP1=0, select bank1
  5759  0F7D  0807               	movf	(135)^080h,w	;volatile
  5760  0F7E  1283               	bcf	status, 5	;RP0=0, select bank0
  5761  0F7F  1303               	bcf	status, 6	;RP1=0, select bank0
  5762  0F80  0443               	iorwf	(_DataBitMap),w
  5763  0F81  1683               	bsf	status, 5	;RP0=1, select bank1
  5764  0F82  1303               	bcf	status, 6	;RP1=0, select bank1
  5765  0F83  0087               	movwf	(135)^080h	;volatile
  5766                           	line	48
  5767                           	
  5768  0F84                     l7494:	
  5769                           ;ds18b20.c: 48: _delay((unsigned long)((50)*(8000000/4000000.0)));
  5770                           	opt asmopt_off
  5771  0F84  3021               movlw	33
  5772  0F85  00F4               movwf	(??_ds_reset+0)+0,f
  5773  0F86                     u5107:
  5774  0F86  0BF4               decfsz	(??_ds_reset+0)+0,f
  5775  0F87  2F86               	goto	u5107
  5776                           opt asmopt_on
  5777                           
  5778                           	line	53
  5779                           ;ds18b20.c: 53: while (((DataBitMap&PORTC)>0)&&!DS18b20TimeOut)
  5780  0F88  2F8A               	goto	l7496
  5781                           	
  5782  0F89                     l2584:	
  5783  0F89  2F8A               	goto	l7496
  5784                           	line	55
  5785                           ;ds18b20.c: 54: {
  5786                           	
  5787  0F8A                     l2583:	
  5788                           	line	53
  5789                           	
  5790  0F8A                     l7496:	
  5791  0F8A  1283               	bcf	status, 5	;RP0=0, select bank0
  5792  0F8B  1303               	bcf	status, 6	;RP1=0, select bank0
  5793  0F8C  0843               	movf	(_DataBitMap),w
  5794  0F8D  0507               	andwf	(7),w	;volatile
  5795  0F8E  1903               	btfsc	status,2
  5796  0F8F  2F91               	goto	u3321
  5797  0F90  2F92               	goto	u3320
  5798  0F91                     u3321:
  5799  0F91  2F9A               	goto	l7500
  5800  0F92                     u3320:
  5801                           	
  5802  0F92                     l7498:	
  5803  0F92  1D79               	btfss	(_DS18b20TimeOut/8),(_DS18b20TimeOut)&7
  5804  0F93  2F95               	goto	u3331
  5805  0F94  2F96               	goto	u3330
  5806  0F95                     u3331:
  5807  0F95  2F8A               	goto	l7496
  5808  0F96                     u3330:
  5809  0F96  2F9A               	goto	l7500
  5810                           	
  5811  0F97                     l2586:	
  5812  0F97  2F9A               	goto	l7500
  5813                           	
  5814  0F98                     l2587:	
  5815                           	line	58
  5816                           ;ds18b20.c: 55: }
  5817                           ;ds18b20.c: 58: while (((DataBitMap&PORTC)==0)&&!DS18b20TimeOut)
  5818  0F98  2F9A               	goto	l7500
  5819                           	
  5820  0F99                     l2589:	
  5821  0F99  2F9A               	goto	l7500
  5822                           	line	60
  5823                           ;ds18b20.c: 59: {
  5824                           	
  5825  0F9A                     l2588:	
  5826                           	line	58
  5827                           	
  5828  0F9A                     l7500:	
  5829  0F9A  0843               	movf	(_DataBitMap),w
  5830  0F9B  0507               	andwf	(7),w	;volatile
  5831  0F9C  1D03               	btfss	status,2
  5832  0F9D  2F9F               	goto	u3341
  5833  0F9E  2FA0               	goto	u3340
  5834  0F9F                     u3341:
  5835  0F9F  2FA5               	goto	l2592
  5836  0FA0                     u3340:
  5837                           	
  5838  0FA0                     l7502:	
  5839  0FA0  1D79               	btfss	(_DS18b20TimeOut/8),(_DS18b20TimeOut)&7
  5840  0FA1  2FA3               	goto	u3351
  5841  0FA2  2FA4               	goto	u3350
  5842  0FA3                     u3351:
  5843  0FA3  2F9A               	goto	l7500
  5844  0FA4                     u3350:
  5845  0FA4  2FA5               	goto	l2592
  5846                           	
  5847  0FA5                     l2591:	
  5848                           	
  5849  0FA5                     l2592:	
  5850                           	line	62
  5851                           ;ds18b20.c: 60: }
  5852                           ;ds18b20.c: 62: TMR1ON = 0;
  5853  0FA5  1010               	bcf	(128/8),(128)&7
  5854                           	line	64
  5855                           	
  5856  0FA6                     l7504:	
  5857                           ;ds18b20.c: 64: _delay((unsigned long)((5)*(8000000/4000000.0)));
  5858                           	opt asmopt_off
  5859  0FA6  3003               movlw	3
  5860  0FA7  00F4               movwf	(??_ds_reset+0)+0,f
  5861  0FA8                     u5117:
  5862  0FA8  0BF4               decfsz	(??_ds_reset+0)+0,f
  5863  0FA9  2FA8               	goto	u5117
  5864                           opt asmopt_on
  5865                           
  5866                           	line	65
  5867                           	
  5868  0FAA                     l2593:	
  5869  0FAA  0008               	return
  5870                           	opt stack 0
  5871                           GLOBAL	__end_of_ds_reset
  5872  0FAB                     	__end_of_ds_reset:
  5873 ;; =============== function _ds_reset ends ============
  5874                           
  5875                           	signat	_ds_reset,88
  5876                           	global	_ReadBit
  5877                           psect	text776,local,class=CODE,delta=2
  5878                           global __ptext776
  5879  0DEA                     __ptext776:
  5880                           
  5881 ;; *************** function _ReadBit *****************
  5882 ;; Defined at:
  5883 ;;		line 40 in file "C:/Users/Dave/MPLABXProjects/IO Test.X/dht22.c"
  5884 ;; Parameters:    Size  Location     Type
  5885 ;;		None
  5886 ;; Auto vars:     Size  Location     Type
  5887 ;;		None
  5888 ;; Return value:  Size  Location     Type
  5889 ;;		None               void
  5890 ;; Registers used:
  5891 ;;		wreg, status,2, status,0
  5892 ;; Tracked objects:
  5893 ;;		On entry : 0/0
  5894 ;;		On exit  : 0/0
  5895 ;;		Unchanged: 0/0
  5896 ;; Data sizes:     COMMON   BANK0   BANK1   BANK2
  5897 ;;      Params:         0       0       0       0
  5898 ;;      Locals:         0       0       0       0
  5899 ;;      Temps:          1       0       0       0
  5900 ;;      Totals:         1       0       0       0
  5901 ;;Total ram usage:        1 bytes
  5902 ;; Hardware stack levels used:    1
  5903 ;; Hardware stack levels required when called:    1
  5904 ;; This function calls:
  5905 ;;		Nothing
  5906 ;; This function is called by:
  5907 ;;		_GetData
  5908 ;; This function uses a non-reentrant model
  5909 ;;
  5910                           psect	text776
  5911                           	file	"C:/Users/Dave/MPLABXProjects/IO Test.X/dht22.c"
  5912                           	line	40
  5913                           	global	__size_of_ReadBit
  5914  002E                     	__size_of_ReadBit	equ	__end_of_ReadBit-_ReadBit
  5915                           	
  5916  0DEA                     _ReadBit:	
  5917                           	opt	stack 2
  5918                           ; Regs used in _ReadBit: [wreg+status,2+status,0]
  5919                           	line	42
  5920                           	
  5921  0DEA                     l7452:	
  5922                           ;dht22.c: 42: while((DataBitMap&PORTC)==0)
  5923  0DEA  2DEC               	goto	l7454
  5924                           	
  5925  0DEB                     l1629:	
  5926  0DEB  2DEC               	goto	l7454
  5927                           	line	43
  5928                           ;dht22.c: 43: {}
  5929                           	
  5930  0DEC                     l1628:	
  5931                           	line	42
  5932                           	
  5933  0DEC                     l7454:	
  5934  0DEC  1283               	bcf	status, 5	;RP0=0, select bank0
  5935  0DED  1303               	bcf	status, 6	;RP1=0, select bank0
  5936  0DEE  0843               	movf	(_DataBitMap),w
  5937  0DEF  0507               	andwf	(7),w	;volatile
  5938  0DF0  1903               	btfsc	status,2
  5939  0DF1  2DF3               	goto	u3281
  5940  0DF2  2DF4               	goto	u3280
  5941  0DF3                     u3281:
  5942  0DF3  2DEC               	goto	l7454
  5943  0DF4                     u3280:
  5944  0DF4  2DF5               	goto	l7456
  5945                           	
  5946  0DF5                     l1630:	
  5947                           	line	44
  5948                           	
  5949  0DF5                     l7456:	
  5950                           ;dht22.c: 44: _delay((unsigned long)((30)*(8000000/4000000.0)));
  5951                           	opt asmopt_off
  5952  0DF5  3013               movlw	19
  5953  0DF6  00F4               movwf	(??_ReadBit+0)+0,f
  5954  0DF7                     u5127:
  5955  0DF7  0BF4               decfsz	(??_ReadBit+0)+0,f
  5956  0DF8  2DF7               	goto	u5127
  5957  0DF9  2DFA               	nop2	;nop
  5958                           opt asmopt_on
  5959                           
  5960                           	line	46
  5961                           	
  5962  0DFA                     l7458:	
  5963                           ;dht22.c: 46: if((DataBitMap&PORTC)>0)
  5964  0DFA  1283               	bcf	status, 5	;RP0=0, select bank0
  5965  0DFB  1303               	bcf	status, 6	;RP1=0, select bank0
  5966  0DFC  0843               	movf	(_DataBitMap),w
  5967  0DFD  0507               	andwf	(7),w	;volatile
  5968  0DFE  1903               	btfsc	status,2
  5969  0DFF  2E01               	goto	u3291
  5970  0E00  2E02               	goto	u3290
  5971  0E01                     u3291:
  5972  0E01  2E04               	goto	l1631
  5973  0E02                     u3290:
  5974                           	line	48
  5975                           	
  5976  0E02                     l7460:	
  5977                           ;dht22.c: 47: {
  5978                           ;dht22.c: 48: Result = 1;
  5979  0E02  15F9               	bsf	(_Result/8),(_Result)&7
  5980                           	line	49
  5981                           ;dht22.c: 49: }
  5982  0E03  2E08               	goto	l7462
  5983                           	line	50
  5984                           	
  5985  0E04                     l1631:	
  5986                           	line	52
  5987                           ;dht22.c: 50: else
  5988                           ;dht22.c: 51: {
  5989                           ;dht22.c: 52: Result = 0;
  5990  0E04  11F9               	bcf	(_Result/8),(_Result)&7
  5991  0E05  2E08               	goto	l7462
  5992                           	line	53
  5993                           	
  5994  0E06                     l1632:	
  5995                           	line	56
  5996                           ;dht22.c: 53: }
  5997                           ;dht22.c: 56: while((DataBitMap&PORTC)>0)
  5998  0E06  2E08               	goto	l7462
  5999                           	
  6000  0E07                     l1634:	
  6001  0E07  2E08               	goto	l7462
  6002                           	line	57
  6003                           ;dht22.c: 57: {}
  6004                           	
  6005  0E08                     l1633:	
  6006                           	line	56
  6007                           	
  6008  0E08                     l7462:	
  6009  0E08  0843               	movf	(_DataBitMap),w
  6010  0E09  0507               	andwf	(7),w	;volatile
  6011  0E0A  1D03               	btfss	status,2
  6012  0E0B  2E0D               	goto	u3301
  6013  0E0C  2E0E               	goto	u3300
  6014  0E0D                     u3301:
  6015  0E0D  2E08               	goto	l7462
  6016  0E0E                     u3300:
  6017                           	
  6018  0E0E                     l1635:	
  6019                           	line	58
  6020                           ;dht22.c: 58: return Result;
  6021  0E0E  19F9               	btfsc	(_Result/8),(_Result)&7
  6022  0E0F  2E11               	goto	u3311
  6023  0E10  2E12               	goto	u3310
  6024  0E11                     u3311:
  6025  0E11  2E14               	goto	l7466
  6026  0E12                     u3310:
  6027                           	
  6028  0E12                     l7464:	
  6029  0E12  1003               	clrc
  6030                           	
  6031  0E13  2E17               	goto	l1636
  6032                           	
  6033  0E14                     l7362:	
  6034                           	
  6035  0E14                     l7466:	
  6036  0E14  1403               	setc
  6037                           	
  6038  0E15  2E17               	goto	l1636
  6039                           	
  6040  0E16                     l7364:	
  6041  0E16  2E17               	goto	l1636
  6042                           	
  6043  0E17                     l7468:	
  6044                           	line	59
  6045                           	
  6046  0E17                     l1636:	
  6047  0E17  0008               	return
  6048                           	opt stack 0
  6049                           GLOBAL	__end_of_ReadBit
  6050  0E18                     	__end_of_ReadBit:
  6051 ;; =============== function _ReadBit ends ============
  6052                           
  6053                           	signat	_ReadBit,88
  6054                           	global	___lwdiv
  6055                           psect	text777,local,class=CODE,delta=2
  6056                           global __ptext777
  6057  0F07                     __ptext777:
  6058                           
  6059 ;; *************** function ___lwdiv *****************
  6060 ;; Defined at:
  6061 ;;		line 5 in file "C:\Program Files (x86)\HI-TECH Software\PICC\9.83\sources\lwdiv.c"
  6062 ;; Parameters:    Size  Location     Type
  6063 ;;  divisor         2    4[COMMON] unsigned int 
  6064 ;;  dividend        2    6[COMMON] unsigned int 
  6065 ;; Auto vars:     Size  Location     Type
  6066 ;;  quotient        2    0[BANK0 ] unsigned int 
  6067 ;;  counter         1    2[BANK0 ] unsigned char 
  6068 ;; Return value:  Size  Location     Type
  6069 ;;                  2    4[COMMON] unsigned int 
  6070 ;; Registers used:
  6071 ;;		wreg, status,2, status,0
  6072 ;; Tracked objects:
  6073 ;;		On entry : 0/0
  6074 ;;		On exit  : 0/0
  6075 ;;		Unchanged: 0/0
  6076 ;; Data sizes:     COMMON   BANK0   BANK1   BANK2
  6077 ;;      Params:         4       0       0       0
  6078 ;;      Locals:         0       3       0       0
  6079 ;;      Temps:          1       0       0       0
  6080 ;;      Totals:         5       3       0       0
  6081 ;;Total ram usage:        8 bytes
  6082 ;; Hardware stack levels used:    1
  6083 ;; Hardware stack levels required when called:    1
  6084 ;; This function calls:
  6085 ;;		Nothing
  6086 ;; This function is called by:
  6087 ;;		_ds_gettemperature
  6088 ;; This function uses a non-reentrant model
  6089 ;;
  6090                           psect	text777
  6091                           	file	"C:\Program Files (x86)\HI-TECH Software\PICC\9.83\sources\lwdiv.c"
  6092                           	line	5
  6093                           	global	__size_of___lwdiv
  6094  0050                     	__size_of___lwdiv	equ	__end_of___lwdiv-___lwdiv
  6095                           	
  6096  0F07                     ___lwdiv:	
  6097                           	opt	stack 3
  6098                           ; Regs used in ___lwdiv: [wreg+status,2+status,0]
  6099                           	line	9
  6100                           	
  6101  0F07                     l7426:	
  6102  0F07  1283               	bcf	status, 5	;RP0=0, select bank0
  6103  0F08  1303               	bcf	status, 6	;RP1=0, select bank0
  6104  0F09  01A0               	clrf	(___lwdiv@quotient)
  6105  0F0A  01A1               	clrf	(___lwdiv@quotient+1)
  6106                           	line	10
  6107                           	
  6108  0F0B                     l7428:	
  6109  0F0B  0875               	movf	(___lwdiv@divisor+1),w
  6110  0F0C  0474               	iorwf	(___lwdiv@divisor),w
  6111  0F0D  1903               	skipnz
  6112  0F0E  2F10               	goto	u3211
  6113  0F0F  2F11               	goto	u3210
  6114  0F10                     u3211:
  6115  0F10  2F4F               	goto	l7448
  6116  0F11                     u3210:
  6117                           	line	11
  6118                           	
  6119  0F11                     l7430:	
  6120  0F11  01A2               	clrf	(___lwdiv@counter)
  6121  0F12  1403               	bsf	status,0
  6122  0F13  0DA2               	rlf	(___lwdiv@counter),f
  6123                           	line	12
  6124  0F14  2F21               	goto	l7436
  6125                           	
  6126  0F15                     l5398:	
  6127                           	line	13
  6128                           	
  6129  0F15                     l7432:	
  6130  0F15  3001               	movlw	01h
  6131                           	
  6132  0F16                     u3225:
  6133  0F16  1003               	clrc
  6134  0F17  0DF4               	rlf	(___lwdiv@divisor),f
  6135  0F18  0DF5               	rlf	(___lwdiv@divisor+1),f
  6136  0F19  3EFF               	addlw	-1
  6137  0F1A  1D03               	skipz
  6138  0F1B  2F16               	goto	u3225
  6139                           	line	14
  6140                           	
  6141  0F1C                     l7434:	
  6142  0F1C  3001               	movlw	(01h)
  6143  0F1D  00F8               	movwf	(??___lwdiv+0)+0
  6144  0F1E  0878               	movf	(??___lwdiv+0)+0,w
  6145  0F1F  07A2               	addwf	(___lwdiv@counter),f
  6146  0F20  2F21               	goto	l7436
  6147                           	line	15
  6148                           	
  6149  0F21                     l5397:	
  6150                           	line	12
  6151                           	
  6152  0F21                     l7436:	
  6153  0F21  1FF5               	btfss	(___lwdiv@divisor+1),(15)&7
  6154  0F22  2F24               	goto	u3231
  6155  0F23  2F25               	goto	u3230
  6156  0F24                     u3231:
  6157  0F24  2F15               	goto	l7432
  6158  0F25                     u3230:
  6159  0F25  2F27               	goto	l7438
  6160                           	
  6161  0F26                     l5399:	
  6162  0F26  2F27               	goto	l7438
  6163                           	line	16
  6164                           	
  6165  0F27                     l5400:	
  6166                           	line	17
  6167                           	
  6168  0F27                     l7438:	
  6169  0F27  3001               	movlw	01h
  6170                           	
  6171  0F28                     u3245:
  6172  0F28  1003               	clrc
  6173  0F29  0DA0               	rlf	(___lwdiv@quotient),f
  6174  0F2A  0DA1               	rlf	(___lwdiv@quotient+1),f
  6175  0F2B  3EFF               	addlw	-1
  6176  0F2C  1D03               	skipz
  6177  0F2D  2F28               	goto	u3245
  6178                           	line	18
  6179  0F2E  0875               	movf	(___lwdiv@divisor+1),w
  6180  0F2F  0277               	subwf	(___lwdiv@dividend+1),w
  6181  0F30  1D03               	skipz
  6182  0F31  2F34               	goto	u3255
  6183  0F32  0874               	movf	(___lwdiv@divisor),w
  6184  0F33  0276               	subwf	(___lwdiv@dividend),w
  6185  0F34                     u3255:
  6186  0F34  1C03               	skipc
  6187  0F35  2F37               	goto	u3251
  6188  0F36  2F38               	goto	u3250
  6189  0F37                     u3251:
  6190  0F37  2F40               	goto	l7444
  6191  0F38                     u3250:
  6192                           	line	19
  6193                           	
  6194  0F38                     l7440:	
  6195  0F38  0874               	movf	(___lwdiv@divisor),w
  6196  0F39  02F6               	subwf	(___lwdiv@dividend),f
  6197  0F3A  0875               	movf	(___lwdiv@divisor+1),w
  6198  0F3B  1C03               	skipc
  6199  0F3C  03F7               	decf	(___lwdiv@dividend+1),f
  6200  0F3D  02F7               	subwf	(___lwdiv@dividend+1),f
  6201                           	line	20
  6202                           	
  6203  0F3E                     l7442:	
  6204  0F3E  1420               	bsf	(___lwdiv@quotient)+(0/8),(0)&7
  6205  0F3F  2F40               	goto	l7444
  6206                           	line	21
  6207                           	
  6208  0F40                     l5401:	
  6209                           	line	22
  6210                           	
  6211  0F40                     l7444:	
  6212  0F40  3001               	movlw	01h
  6213                           	
  6214  0F41                     u3265:
  6215  0F41  1003               	clrc
  6216  0F42  0CF5               	rrf	(___lwdiv@divisor+1),f
  6217  0F43  0CF4               	rrf	(___lwdiv@divisor),f
  6218  0F44  3EFF               	addlw	-1
  6219  0F45  1D03               	skipz
  6220  0F46  2F41               	goto	u3265
  6221                           	line	23
  6222                           	
  6223  0F47                     l7446:	
  6224  0F47  3001               	movlw	low(01h)
  6225  0F48  02A2               	subwf	(___lwdiv@counter),f
  6226  0F49  1D03               	btfss	status,2
  6227  0F4A  2F4C               	goto	u3271
  6228  0F4B  2F4D               	goto	u3270
  6229  0F4C                     u3271:
  6230  0F4C  2F27               	goto	l7438
  6231  0F4D                     u3270:
  6232  0F4D  2F4F               	goto	l7448
  6233                           	
  6234  0F4E                     l5402:	
  6235  0F4E  2F4F               	goto	l7448
  6236                           	line	24
  6237                           	
  6238  0F4F                     l5396:	
  6239                           	line	25
  6240                           	
  6241  0F4F                     l7448:	
  6242  0F4F  0821               	movf	(___lwdiv@quotient+1),w
  6243  0F50  01F5               	clrf	(?___lwdiv+1)
  6244  0F51  07F5               	addwf	(?___lwdiv+1)
  6245  0F52  0820               	movf	(___lwdiv@quotient),w
  6246  0F53  01F4               	clrf	(?___lwdiv)
  6247  0F54  07F4               	addwf	(?___lwdiv)
  6248                           
  6249  0F55  2F56               	goto	l5403
  6250                           	
  6251  0F56                     l7450:	
  6252                           	line	26
  6253                           	
  6254  0F56                     l5403:	
  6255  0F56  0008               	return
  6256                           	opt stack 0
  6257                           GLOBAL	__end_of___lwdiv
  6258  0F57                     	__end_of___lwdiv:
  6259 ;; =============== function ___lwdiv ends ============
  6260                           
  6261                           	signat	___lwdiv,8314
  6262                           	global	___wmul
  6263                           psect	text778,local,class=CODE,delta=2
  6264                           global __ptext778
  6265  0E47                     __ptext778:
  6266                           
  6267 ;; *************** function ___wmul *****************
  6268 ;; Defined at:
  6269 ;;		line 3 in file "C:\Program Files (x86)\HI-TECH Software\PICC\9.83\sources\wmul.c"
  6270 ;; Parameters:    Size  Location     Type
  6271 ;;  multiplier      2    4[COMMON] unsigned int 
  6272 ;;  multiplicand    2    6[COMMON] unsigned int 
  6273 ;; Auto vars:     Size  Location     Type
  6274 ;;  product         2    0[BANK0 ] unsigned int 
  6275 ;; Return value:  Size  Location     Type
  6276 ;;                  2    4[COMMON] unsigned int 
  6277 ;; Registers used:
  6278 ;;		wreg, status,2, status,0
  6279 ;; Tracked objects:
  6280 ;;		On entry : 0/0
  6281 ;;		On exit  : 0/0
  6282 ;;		Unchanged: 0/0
  6283 ;; Data sizes:     COMMON   BANK0   BANK1   BANK2
  6284 ;;      Params:         4       0       0       0
  6285 ;;      Locals:         0       2       0       0
  6286 ;;      Temps:          0       0       0       0
  6287 ;;      Totals:         4       2       0       0
  6288 ;;Total ram usage:        6 bytes
  6289 ;; Hardware stack levels used:    1
  6290 ;; Hardware stack levels required when called:    1
  6291 ;; This function calls:
  6292 ;;		Nothing
  6293 ;; This function is called by:
  6294 ;;		_ds_gettemperature
  6295 ;; This function uses a non-reentrant model
  6296 ;;
  6297                           psect	text778
  6298                           	file	"C:\Program Files (x86)\HI-TECH Software\PICC\9.83\sources\wmul.c"
  6299                           	line	3
  6300                           	global	__size_of___wmul
  6301  0030                     	__size_of___wmul	equ	__end_of___wmul-___wmul
  6302                           	
  6303  0E47                     ___wmul:	
  6304                           	opt	stack 3
  6305                           ; Regs used in ___wmul: [wreg+status,2+status,0]
  6306                           	line	4
  6307                           	
  6308  0E47                     l8080:	
  6309  0E47  1283               	bcf	status, 5	;RP0=0, select bank0
  6310  0E48  1303               	bcf	status, 6	;RP1=0, select bank0
  6311  0E49  01A0               	clrf	(___wmul@product)
  6312  0E4A  01A1               	clrf	(___wmul@product+1)
  6313  0E4B  2E4C               	goto	l8082
  6314                           	line	6
  6315                           	
  6316  0E4C                     l5390:	
  6317                           	line	7
  6318                           	
  6319  0E4C                     l8082:	
  6320  0E4C  1C74               	btfss	(___wmul@multiplier),(0)&7
  6321  0E4D  2E4F               	goto	u4121
  6322  0E4E  2E50               	goto	u4120
  6323  0E4F                     u4121:
  6324  0E4F  2E58               	goto	l5391
  6325  0E50                     u4120:
  6326                           	line	8
  6327                           	
  6328  0E50                     l8084:	
  6329  0E50  0876               	movf	(___wmul@multiplicand),w
  6330  0E51  1283               	bcf	status, 5	;RP0=0, select bank0
  6331  0E52  1303               	bcf	status, 6	;RP1=0, select bank0
  6332  0E53  07A0               	addwf	(___wmul@product),f
  6333  0E54  1803               	skipnc
  6334  0E55  0AA1               	incf	(___wmul@product+1),f
  6335  0E56  0877               	movf	(___wmul@multiplicand+1),w
  6336  0E57  07A1               	addwf	(___wmul@product+1),f
  6337                           	
  6338  0E58                     l5391:	
  6339                           	line	9
  6340  0E58  3001               	movlw	01h
  6341                           	
  6342  0E59                     u4135:
  6343  0E59  1003               	clrc
  6344  0E5A  0DF6               	rlf	(___wmul@multiplicand),f
  6345  0E5B  0DF7               	rlf	(___wmul@multiplicand+1),f
  6346  0E5C  3EFF               	addlw	-1
  6347  0E5D  1D03               	skipz
  6348  0E5E  2E59               	goto	u4135
  6349                           	line	10
  6350                           	
  6351  0E5F                     l8086:	
  6352  0E5F  3001               	movlw	01h
  6353                           	
  6354  0E60                     u4145:
  6355  0E60  1003               	clrc
  6356  0E61  0CF5               	rrf	(___wmul@multiplier+1),f
  6357  0E62  0CF4               	rrf	(___wmul@multiplier),f
  6358  0E63  3EFF               	addlw	-1
  6359  0E64  1D03               	skipz
  6360  0E65  2E60               	goto	u4145
  6361                           	line	11
  6362  0E66  0875               	movf	((___wmul@multiplier+1)),w
  6363  0E67  0474               	iorwf	((___wmul@multiplier)),w
  6364  0E68  1D03               	skipz
  6365  0E69  2E6B               	goto	u4151
  6366  0E6A  2E6C               	goto	u4150
  6367  0E6B                     u4151:
  6368  0E6B  2E4C               	goto	l8082
  6369  0E6C                     u4150:
  6370  0E6C  2E6D               	goto	l8088
  6371                           	
  6372  0E6D                     l5392:	
  6373                           	line	12
  6374                           	
  6375  0E6D                     l8088:	
  6376  0E6D  1283               	bcf	status, 5	;RP0=0, select bank0
  6377  0E6E  1303               	bcf	status, 6	;RP1=0, select bank0
  6378  0E6F  0821               	movf	(___wmul@product+1),w
  6379  0E70  01F5               	clrf	(?___wmul+1)
  6380  0E71  07F5               	addwf	(?___wmul+1)
  6381  0E72  0820               	movf	(___wmul@product),w
  6382  0E73  01F4               	clrf	(?___wmul)
  6383  0E74  07F4               	addwf	(?___wmul)
  6384                           
  6385  0E75  2E76               	goto	l5393
  6386                           	
  6387  0E76                     l8090:	
  6388                           	line	13
  6389                           	
  6390  0E76                     l5393:	
  6391  0E76  0008               	return
  6392                           	opt stack 0
  6393                           GLOBAL	__end_of___wmul
  6394  0E77                     	__end_of___wmul:
  6395 ;; =============== function ___wmul ends ============
  6396                           
  6397                           	signat	___wmul,8314
  6398                           	global	_onewire_init
  6399                           psect	text779,local,class=CODE,delta=2
  6400                           global __ptext779
  6401  0DA6                     __ptext779:
  6402                           
  6403 ;; *************** function _onewire_init *****************
  6404 ;; Defined at:
  6405 ;;		line 135 in file "C:/Users/Dave/MPLABXProjects/IO Test.X/CLDTP1.c"
  6406 ;; Parameters:    Size  Location     Type
  6407 ;;		None
  6408 ;; Auto vars:     Size  Location     Type
  6409 ;;		None
  6410 ;; Return value:  Size  Location     Type
  6411 ;;		None               void
  6412 ;; Registers used:
  6413 ;;		None
  6414 ;; Tracked objects:
  6415 ;;		On entry : 0/0
  6416 ;;		On exit  : 0/0
  6417 ;;		Unchanged: 0/0
  6418 ;; Data sizes:     COMMON   BANK0   BANK1   BANK2
  6419 ;;      Params:         0       0       0       0
  6420 ;;      Locals:         0       0       0       0
  6421 ;;      Temps:          0       0       0       0
  6422 ;;      Totals:         0       0       0       0
  6423 ;;Total ram usage:        0 bytes
  6424 ;; Hardware stack levels used:    1
  6425 ;; Hardware stack levels required when called:    1
  6426 ;; This function calls:
  6427 ;;		Nothing
  6428 ;; This function is called by:
  6429 ;;		_main
  6430 ;; This function uses a non-reentrant model
  6431 ;;
  6432                           psect	text779
  6433                           	file	"C:/Users/Dave/MPLABXProjects/IO Test.X/CLDTP1.c"
  6434                           	line	135
  6435                           	global	__size_of_onewire_init
  6436  0004                     	__size_of_onewire_init	equ	__end_of_onewire_init-_onewire_init
  6437                           	
  6438  0DA6                     _onewire_init:	
  6439                           	opt	stack 6
  6440                           ; Regs used in _onewire_init: []
  6441                           	line	136
  6442                           	
  6443  0DA6                     l7412:	
  6444                           ;CLDTP1.c: 136: TRISB7 = 1;
  6445  0DA6  1683               	bsf	status, 5	;RP0=1, select bank1
  6446  0DA7  1303               	bcf	status, 6	;RP1=0, select bank1
  6447  0DA8  1786               	bsf	(1079/8)^080h,(1079)&7
  6448                           	line	137
  6449                           	
  6450  0DA9                     l4531:	
  6451  0DA9  0008               	return
  6452                           	opt stack 0
  6453                           GLOBAL	__end_of_onewire_init
  6454  0DAA                     	__end_of_onewire_init:
  6455 ;; =============== function _onewire_init ends ============
  6456                           
  6457                           	signat	_onewire_init,88
  6458                           	global	_isr
  6459                           psect	text780,local,class=CODE,delta=2
  6460                           global __ptext780
  6461  0DB8                     __ptext780:
  6462                           
  6463 ;; *************** function _isr *****************
  6464 ;; Defined at:
  6465 ;;		line 39 in file "C:/Users/Dave/MPLABXProjects/IO Test.X/IOTest.c"
  6466 ;; Parameters:    Size  Location     Type
  6467 ;;		None
  6468 ;; Auto vars:     Size  Location     Type
  6469 ;;		None
  6470 ;; Return value:  Size  Location     Type
  6471 ;;		None               void
  6472 ;; Registers used:
  6473 ;;		status,2
  6474 ;; Tracked objects:
  6475 ;;		On entry : 0/0
  6476 ;;		On exit  : 0/0
  6477 ;;		Unchanged: 0/0
  6478 ;; Data sizes:     COMMON   BANK0   BANK1   BANK2
  6479 ;;      Params:         0       0       0       0
  6480 ;;      Locals:         0       0       0       0
  6481 ;;      Temps:          4       0       0       0
  6482 ;;      Totals:         4       0       0       0
  6483 ;;Total ram usage:        4 bytes
  6484 ;; Hardware stack levels used:    1
  6485 ;; This function calls:
  6486 ;;		Nothing
  6487 ;; This function is called by:
  6488 ;;		Interrupt level 1
  6489 ;; This function uses a non-reentrant model
  6490 ;;
  6491                           psect	text780
  6492                           	file	"C:/Users/Dave/MPLABXProjects/IO Test.X/IOTest.c"
  6493                           	line	39
  6494                           	global	__size_of_isr
  6495  0016                     	__size_of_isr	equ	__end_of_isr-_isr
  6496                           	
  6497  0DB8                     _isr:	
  6498                           	opt	stack 2
  6499                           ; Regs used in _isr: [status,2]
  6500                           psect	intentry,class=CODE,delta=2
  6501                           global __pintentry
  6502  0004                     __pintentry:
  6503                           global interrupt_function
  6504  0004                     interrupt_function:
  6505                           	global saved_w
  6506  007E                     	saved_w	set	btemp+0
  6507  0004  00FE               	movwf	saved_w
  6508  0005  0E03               	swapf	status,w
  6509  0006  00F0               	movwf	(??_isr+0)
  6510  0007  0804               	movf	fsr0,w
  6511  0008  00F1               	movwf	(??_isr+1)
  6512  0009  080A               	movf	pclath,w
  6513  000A  00F2               	movwf	(??_isr+2)
  6514  000B  1283               	bcf	status, 5	;RP0=0, select bank0
  6515  000C  1303               	bcf	status, 6	;RP1=0, select bank0
  6516  000D  087F               	movf	btemp+1,w
  6517  000E  00F3               	movwf	(??_isr+3)
  6518  000F  158A  2DB8         	ljmp	_isr
  6519                           psect	text780
  6520                           	line	40
  6521                           	
  6522  0DB8                     i1l5886:	
  6523                           ;IOTest.c: 40: if(TMR1IF =1)
  6524  0DB8  140C               	bsf	(96/8),(96)&7
  6525  0DB9  1C0C               	btfss	(96/8),(96)&7
  6526  0DBA  2DBC               	goto	u8_21
  6527  0DBB  2DBD               	goto	u8_20
  6528  0DBC                     u8_21:
  6529  0DBC  2DC3               	goto	i1l3542
  6530  0DBD                     u8_20:
  6531                           	line	42
  6532                           	
  6533  0DBD                     i1l5888:	
  6534                           ;IOTest.c: 41: {
  6535                           ;IOTest.c: 42: TMR1H = 0x0;
  6536  0DBD  018F               	clrf	(15)	;volatile
  6537                           	line	43
  6538                           ;IOTest.c: 43: TMR1L = 0x0;
  6539  0DBE  018E               	clrf	(14)	;volatile
  6540                           	line	44
  6541                           	
  6542  0DBF                     i1l5890:	
  6543                           ;IOTest.c: 44: DHTTimeOut = 1;
  6544  0DBF  1479               	bsf	(_DHTTimeOut/8),(_DHTTimeOut)&7
  6545                           	line	45
  6546                           	
  6547  0DC0                     i1l5892:	
  6548                           ;IOTest.c: 45: DS18b20TimeOut = 1;
  6549  0DC0  1579               	bsf	(_DS18b20TimeOut/8),(_DS18b20TimeOut)&7
  6550                           	line	46
  6551                           	
  6552  0DC1                     i1l5894:	
  6553                           ;IOTest.c: 46: TMR1IF = 0;
  6554  0DC1  100C               	bcf	(96/8),(96)&7
  6555  0DC2  2DC3               	goto	i1l3542
  6556                           	line	47
  6557                           	
  6558  0DC3                     i1l3541:	
  6559                           	line	48
  6560                           	
  6561  0DC3                     i1l3542:	
  6562  0DC3  0873               	movf	(??_isr+3),w
  6563  0DC4  00FF               	movwf	btemp+1
  6564  0DC5  0872               	movf	(??_isr+2),w
  6565  0DC6  008A               	movwf	pclath
  6566  0DC7  0871               	movf	(??_isr+1),w
  6567  0DC8  0084               	movwf	fsr0
  6568  0DC9  0E70               	swapf	(??_isr+0)^0FFFFFF80h,w
  6569  0DCA  0083               	movwf	status
  6570  0DCB  0EFE               	swapf	saved_w,f
  6571  0DCC  0E7E               	swapf	saved_w,w
  6572  0DCD  0009               	retfie
  6573                           	opt stack 0
  6574                           GLOBAL	__end_of_isr
  6575  0DCE                     	__end_of_isr:
  6576 ;; =============== function _isr ends ============
  6577                           
  6578                           	signat	_isr,88
  6579                           psect	text781,local,class=CODE,delta=2
  6580                           global __ptext781
  6581  0000                     __ptext781:
  6582                           	global	btemp
  6583  007E                     	btemp set 07Eh
  6584                           
  6585                           	DABS	1,126,2	;btemp
  6586                           	global	wtemp0
  6587  007E                     	wtemp0 set btemp


HI-TECH Software PICC Macro Assembler V9.83 build 10920 
Symbol Table                                                                                   Thu Apr 21 08:13:09 2016

                               _RD 0C60                                 _WR 0C61  
              ___wmul@multiplicand 0076              GetHumidity@databitmap 0032  
                              _GIE 005F                                _isr 0DB8  
                              fsr0 0004                 onewire_write@count 0021  
                      ds_read@data 0023                         _DataBitMap 0043  
              __end_of_GetHumidity 0F07                               l1630 0DF5  
                             l1631 0E04                               l1632 0E06  
                             l2600 0743                               l1640 01D5  
                             l1633 0E08                               l1634 0E07  
                             l1650 01F1                               l1642 01E1  
                             l1635 0E0E                               l2603 060A  
                             l1643 01E2                               l1636 0E17  
                             l1628 0DEC                               l2604 065F  
                             l1660 0287                               l1652 01FD  
                             l1644 01E4                               l2620 05F2  
                             l1629 0DEB                               l2605 062C  
                             l1661 029A                               l1653 01FD  
                             l1645 01E3                               l2606 062E  
                             l1654 0310                               l1662 02B4  
                             l1670 0EA7                               l2607 0645  
                             l1663 02C7                               l1655 0213  
                             l1647 01EF                               l1639 01D6  
                             l1671 0EBE                               l2608 0667  
                             l1664 02E1                               l1656 022D  
                             l1648 01F0                               l1672 0EBE  
                             l1680 0F06                               l3600 0196  
                             l1665 030D                               l1657 0240  
                             l1649 01F2                               l1673 0EB2  
                             l1681 0EFA                               l3601 0196  
                             l1666 030F                               l1658 025A  
                             l2618 05EA                               l1674 0EBD  
                             l1682 0F05                               l1659 026D  
                             l1667 0310                               l2619 05F2  
                             l1675 0EBC                               l1683 0F04  
                             l4500 0690                               l4501 06A1  
                             l4502 06A2                               l1678 0EEF  
                             l2591 0FA5                               l2583 0F8A  
                             l4503 06A2                               l1679 0F06  
                             l5400 0F27                               l2592 0FA5  
                             l2584 0F89                               l4504 06A7  
                             l4512 07F8                               l4520 07DB  
                             l3560 0404                               l3552 0FFF  
                             l5401 0F40                               l2593 0FAA  
                             l4505 06BE                               l4521 07DB  
                             l4513 07B2                               l3545 0E43  
                             l3561 03D3                               l5402 0F4E  
                             l2586 0F97                               l4506 06B6  
                             l4522 07E2                               l4514 07B3  
                             l3546 0E3F                               l3562 0437  
                             l3570 053E                               l4531 0DA9  
                             l5403 0F56                               l2587 0F98  
                             l4507 06B6                               l4523 07F7  
                             l4515 07B3                               l3547 0E46  
                             l3555 034A                               l3563 0439  
                             l3571 050A                               l2588 0F9A  
                             l2596 06EF                               l4508 06BD  
                             l4524 07FF                               l4516 07B8  
                             l3548 0E42                               l3556 0439  
                             l3572 053D                               l3580 0193  
                             l2589 0F99                               l2597 073F  
                             l4509 06D8                               l4525 07FF  
                             l4517 07C6                               l3549 0E46  
                             l3557 03A7                               l3573 053F  
                             l3581 008B                               l2598 06FF  
                             l4518 07C6                               l3558 0376  
                             l3566 0473                               l3582 0192  
                             l3590 018E                               l2599 0701  
                             l4519 07CD                               l3559 0438  
                             l3567 053F                               l3591 00FE  
                             l3583 00A2                               l4528 0DE9  
                             l3568 04D0                               l3584 0191  
                             l3592 018D                               l3576 003C  
                             l3569 049F                               l3593 0115  
                             l3585 00B9                               l3577 005F  
                             l4490 075A                               l3578 0194  
                             l3586 0190                               l3594 018C  
                             l4491 07A7                               l3595 014B  
                             l3587 00D0                               l3579 0075  
                             l8100 06F6                               l4492 0769  
                             l3588 018F                               l3596 018B  
                             l4493 076A                               l3597 0157  
                             l3589 00E7                               l5390 0E4C  
                             l8110 0710                               l8102 06FA  
                             l4494 07AB                               l3598 018A  
                             l5391 0E58                               l3599 0195  
                             l5392 0E6D                               l8120 0731  
                             l8112 0715                               l8104 0701  
                             l8200 068A                               l5393 0E76  
                             l4497 067F                               l8114 071E  
                             l8106 0704                               l8122 073F  
                             l8130 0609                               l4498 06D4  
                             l8210 06B5                               l8202 0690  
                             l4499 068E                               l7412 0DA6  
                             l5396 0F4F                               l7500 0F9A  
                             l8116 0722                               l8108 0709  
                             l8140 0620                               l8132 060A  
                             l8124 05F3                               l8212 06BE  
                             l8204 0697                               l8220 0543  
                             l8300 0E41                               l5397 0F21  
                             l5398 0F15                               l7430 0F11  
                             l7502 0FA0                               l8118 072B  
                             l8150 063F                               l8142 0628  
                             l8134 060D                               l8126 05F7  
                             l8214 06C6                               l8206 069B  
                             l8230 0565                               l8222 0547  
                             l8302 0E43                               l8310 0322  
                             l5399 0F26                               l8080 0E47  
                             l7440 0F38                               l7432 0F15  
                             l7504 0FA6                               l8160 0667  
                             l8152 0645                               l8144 062E  
                             l8136 0612                               l8128 05FB  
                             l8208 06A7                               l8216 06D4  
                             l8240 058B                               l8232 0568  
                             l8224 054A                               l8304 0E45  
                             l8320 0369                               l8312 0330  
                             l8400 001E                               l8090 0E76  
                             l8082 0E4C                               l7450 0F56  
                             l7442 0F3E                               l7434 0F1C  
                             l7426 0F07                               l7362 0E14  
                             l8154 0649                               l8146 0632  
                             l8138 061B                               l8170 0761  
                             l8162 0747                               l8218 06D8  
                             l8250 05E1                               l8242 05A9  
                             l8234 056C                               l8226 054E  
                             l8330 03B0                               l8322 0376  
                             l8314 034A                               l8306 0311  
                             l8410 003A                               l8402 0021  
                             l8084 0E50                               l7444 0F40  
                             l7436 0F21                               l7428 0F0B  
                             l7364 0E16                               l7460 0E02  
                             l7452 0DEA                               l8092 06DC  
                             l8156 0651                               l8148 063B  
                             l8180 078A                               l8172 0765  
                             l8164 074B                               l7700 026C  
                             l8252 05E8                               l8244 05AF  
                             l8236 0570                               l8228 0556  
                             l8260 0DCF                               l8340 03F5  
                             l8332 03BC                               l8324 037F  
                             l8316 0353                               l8308 0319  
                             l8420 005F                               l8412 003C  
                             l8404 0024                               ?_isr 0070  
                             l8086 0E5F                               l7446 0F47  
                             l7438 0F27                               l7462 0E08  
                             l7454 0DEC                               l7470 0F57  
                             l8094 06E0                               l8158 065F  
                             l8182 0793                               l8174 076D  
                             l8166 0759                               l8190 066C  
                             l7710 028B                               l7702 026D  
                             l8254 05E9                               l8246 05C4  
                             l8238 057B                               l8262 0DD3  
                             l8270 07B8                               l8334 03C6  
                             l8342 0404                               l8326 0398  
                             l8318 035F                               l8350 0442  
                             l8430 0093                               l8422 0067  
                             l8414 0045                               l8406 0028  
                             l8088 0E6D                               l7448 0F4F  
                             l7464 0E12                               l7456 0DF5  
                             l7480 0F66                               l7472 0F60  
                             l8096 06EE                               l8184 0799  
                             l8176 0772                               l8168 075A  
                             l8192 0670                               l7712 0299  
                             l7720 02B4                               l7704 0273  
                             l7640 01AE                               l8248 05D9  
                             l8256 05EA                               l8264 0DD8  
                             l8280 07EA                               l8272 07C0  
                             l8344 040F                               l8336 03D3  
                             l8328 03A7                               l8360 0488  
                             l8352 044B                               l8440 00D0  
                             l8432 00A2                               l8424 0075  
                             l8416 004A                               l8408 002B  
                             l7466 0E14                               l7458 0DFA  
                             l7490 0F72                               l7482 0F67  
                             l7474 0F63                               l8098 06EF  
                             l8178 0783                               l8186 07A7  
                             l8194 067E                               l7730 02D3  
                             l7722 02B8                               l7714 029A  
                             l7706 0279                               l7650 01C6  
                             l7642 01B1                               l7634 0198  
                             l8258 05F1                               l8266 0DE3  
                             l8282 07F0                               l8274 07CD  
                             l7810 0E81                               l8290 0E29  
                             l8346 041D                               l8338 03DC  
                             l8362 0492                               l8370 04D0  
                             l8354 0459                               l8450 0106  
                             l8442 00D8                               l8434 00AA  
                             l8426 007D                               l8418 0053  
                             l7468 0E17                               l7492 0F75  
                             l7484 0F69                               l7476 0F64  
                             l8196 067F                               l8188 0668  
                             l7724 02C6                               l7732 02E1  
                             l7716 02A0                               l7708 0287  
                             l7660 01D6                               l7652 01C9  
                             l7644 01B6                               l7636 019C  
                             l8284 07F6                               l8276 07D5  
                             l8268 07AF                               l7820 0EA5  
                             l7812 0E85                               l8292 0E3B  
                             l8380 0515                               l8372 04D9  
                             l8364 049F                               l8356 0473  
                             l8348 043A                               l8460 014B  
                             l8452 0115                               l8444 00E7  
                             l8436 00B9                               l8428 008B  
                             l7494 0F84                               l7486 0F6D  
                             l7478 0F65                               l8198 0684  
                             l7734 02FE                               l7726 02C7  
                             l7718 02A6                               l7670 01F8  
                             l7662 01DC                               l7654 01CB  
                             l7646 01BF                               l7638 01A1  
                             l8278 07E2                               l8286 07F8  
                             l7830 0EB6                               l7822 0EA6  
                             l7814 0E89                               l7806 0E7A  
                             l8294 0E3D                               l8382 0523  
                             l8374 04E2                               l8366 04A8  
                             l8358 047C                               l8390 0FF1  
                             l8462 0153                               l8454 011D  
                             l8446 00EF                               l8438 00C1  
                             l7496 0F8A                               l7488 0F6F  
                             l7736 030B                               l7728 02CD  
                             l7680 0219                               l7672 0202  
                             l7664 01E4                               l7656 01CF  
                             l7648 01C3                               l7832 0EBB  
                             l7824 0EAB                               l7816 0E92  
                             l7808 0E7E                               l7840 0ECD  
                             l8296 0E3E                               l8288 0E1B  
                             l8376 04F0                               l8368 04C1  
                             l8384 0FAB                               l8464 0157  
                             l8456 0126                               l8448 00FE  
                             l8392 0013                               l7498 0F92  
                             l7690 0240                               l7682 021F  
                             l7674 0204                               l7666 01EA  
                             l7658 01D1                               l7826 0EB0  
                             l7818 0E9E                               l7850 0EEE  
                             l7842 0ED1                               l7834 0EC2  
                             l8298 0E3F                               l8378 050A  
                             l8386 0FCF                               l8466 0162  
                             l8458 0131                               l8394 0017  
                             l7692 0246                               l7676 0212  
                             l7684 022D                               l7668 01F2  
                             l7828 0EB1                               l7860 0F03  
                             l7852 0EF3                               l7844 0EDA  
                             l7836 0EC6                               l8388 0FD8  
                             l8468 0170                               l8396 001A  
                             l7694 024C                               l7686 0231  
                             l7678 0213                               l7854 0EF8  
                             l7846 0EE6                               l7838 0EC9  
                             l8398 001B                               l7688 023F  
                             l7696 025A                               l7856 0EF9  
                             l7848 0EED                               l7698 025E  
                             l7858 0EFE                               u3210 0F11  
                             u3211 0F10                               u3300 0E0E  
                             u3301 0E0D                               u3230 0F25  
                             u3310 0E12                               u3231 0F24  
                             u3311 0E11                               u4120 0E50  
                             u3320 0F92                               u4200 0628  
                             u4121 0E4F                               u3225 0F16  
                             u3321 0F91                               u4201 0627  
                             u3250 0F38                               u3330 0F96  
                             u4210 063F                               u3251 0F37  
                             u3331 0F95                               u3340 0FA0  
                             u4220 065E                               u4300 069B  
                             u3245 0F28                               u3341 0F9F  
                             u4221 065D                               u4150 0E6C  
                             u3270 0F4D                               u3350 0FA4  
                             u4230 0758                               u4310 06A6  
                             u4151 0E6B                               u4135 0E59  
                             u3271 0F4C                               u3255 0F34  
                             u3351 0FA3                               u5007 060F  
                             u4231 0757                               u4311 06A5  
                             _PIE1 008C                               u3280 0DF4  
                             u4160 06ED                               u4240 0765  
                             u4320 06B4                               u3600 01FC  
                             u4400 07F0                               u4145 0E60  
                             u3265 0F41                               u3281 0DF3  
                             u4161 06EC                               u4225 065A  
                             u5017 061D                               u4321 06B3  
                             u3601 01FB                               u4401 07EF  
                             u3290 0E02                               u4170 06FA  
                             u4250 077B                               u4330 06BC  
                             u3610 0202                               u4410 07FE  
                             u3291 0E01                               u5107 0F86  
                             u5027 0630                               u4251 0777  
                             u4235 0754                               u4331 06BB  
                             u3611 0201                               u4411 07FD  
                             u4180 073E                               u4340 06D3  
                             u3700 02C5                               u3620 0211  
                             u4420 0E29                               u4500 047C  
                             u5117 0FA8                               u4181 073D  
                             u4165 06E9                               u5037 0647  
                             u4341 06D2                               u4325 06B0  
                             u3701 02C4                               u3621 0210  
                             u4421 0E28                               u4501 047B  
                             u4190 0608                               u4270 07A6  
                             u3710 02E0                               u3630 022C  
                             u3550 01DC                               u4350 054E  
                             u4430 0E3B                               u4510 0492  
                             u5127 0DF7                               u5047 0661  
                             u4191 0607                               u4271 07A5  
                             u3711 02DF                               u3631 022B  
                             u3551 01DB                               u4351 054D  
                             u4431 0E3A                               u4511 0491  
                             u4264 077E                               u4280 067D  
                             u3720 030B                               u3640 023E  
                             u3560 01E0                               u3800 0E85  
                             u4440 0319                               u4520 04D9  
                             u4600 00EF                               u4185 073A  
                             u5057 0706                               u4345 06CF  
                             u4281 067C                               u3721 030A  
                             u3705 02C1                               u3641 023D  
                             u3625 020D                               u3561 01DF  
                             u3801 0E84                               u4425 0E25  
                             u4441 0318                               u4521 04D8  
                             u4601 00EE                               u4290 068A  
                             u3650 0259                               u3570 01EA  
                             u4370 07B7                               u3810 0E89  
                             u4450 0353                               u4610 0106  
                             u4530 004A                               u5067 0712  
                             u4195 0604                               u4275 07A2  
                             u4291 0689                               u3715 02DC  
                             u3651 0258                               u3635 0228  
                             u3571 01E9                               u4371 07B6  
                             u3811 0E88                               u4435 0E37  
                             u4451 0352                               u4515 048E  
                             u4611 0105                               u4531 0049  
                             u3660 026B                               u3580 01EE  
                             u4380 07CC                               u3820 0EAB  
                             u4460 0369                               u4620 011D  
                             u4540 0067                               u5077 0720  
                             u4285 0679                               u3725 0307  
                             u3661 026A                               u3645 023A  
                             u3581 01ED                               u4365 0590  
                             u4381 07CB                               u3821 0EAA  
                             u4461 0368                               u4621 011C  
                             u4541 0066                               u3670 0286  
                             u3590 01F8                               u4390 07E1  
                             u3830 0EB6                               u4470 03B0  
                             u4630 0153                               u4550 007D  
                             u5087 0741                               u3671 0285  
                             u3655 0255                               u3591 01F7  
                             u4391 07E0                               u3831 0EB5  
                             u4471 03AF                               u4631 0152  
                             u4551 007C                               u3680 0298  
                             u3840 0ECD                               u4480 03C6  
                             u4560 0093                               u5097 0F77  
                             u3681 0297                               u3665 0267  
                             u3841 0ECC                               u4481 03C5  
                             u4465 0365                               u4561 0092  
                             u3690 02B3                               u3850 0ED1  
                             u4490 0442                               u4570 00AA  
                             u3691 02B2                               u3675 0282  
                             u3851 0ED0                               u4491 0441  
                             u4707 0FD3                               u4571 00A9  
                             u3860 0EF3                               u4580 00C1  
                             _RCIF 0065                               u3685 0294  
                             u3861 0EF2                               u4485 03C2  
                             u4717 0FEC                               u4581 00C0  
                             u3870 0EFE                               u4590 00D8  
                             u3695 02AF                               u3871 0EFD  
                             u4807 031D                               u4727 0446  
                             u4591 00D7                               u4647 0033  
                             u4817 0336                               u4737 045F  
                             u4657 004E                               u4907 0DD5  
                             u4827 037A                               u4747 04A3  
                             u4667 0121                               u4917 0DE0  
                             u4837 0393                               u4757 04BC  
                             u4677 0137                               u4927 055E  
                             u4847 03D7                               u4767 04DD  
                             u4687 015D                               u4937 01A7  
                             u4857 03F0                               u4777 04F6  
                             u4697 0176                               u4947 01BA  
                             u4867 040A                               u4787 0510  
                             u4957 0681                               u4877 0423  
                             u4797 0529                               u4967 076F  
                             u4887 07C2                               u4977 0780  
                             u4897 07D7                               u4987 0788  
                             u4997 07A9                               _WREN 0C62  
                             _TXIF 0064                               u8_20 0DBD  
                             u8_21 0DBC                               _main 0013  
                             btemp 007E                               start 0011  
                  __end_of_GetData 0311                       ds_read@count 0021  
                  __end_of_ReadBit 0E18                              ??_isr 0070  
                            ?_main 0070                              _EEADR 010D  
                            _CARRY 0018                              _ANSEL 011E  
                            _T1CON 0010                    __end_of___lwdiv 0F57  
                            _RCREG 001A                              _RCSTA 0018  
                            _TMR1H 000F                              _TMR1L 000E  
                            _SPBRG 0099                              _PORTB 0006  
                            _PORTC 0007                              _TRISB 0086  
                            _TRISC 0087                              _TXREG 0019  
                            _TXSTA 0098                              _TempH 004A  
                            _TempL 004B                    __end_of_ds_read 0668  
                      ds_write@lsb 0023            __size_of_GetTemperature 0048  
                   __pbitbssCOMMON 03C8                 _onewire_sendpacket 0DCE  
                            pclath 000A                              status 0003  
                            wtemp0 007E                ?_onewire_sendpacket 0024  
                     __end_of_main 0198            ds_gettemperature@result 002C  
                           ??_main 003E                        _GetHumidity 0EBF  
             ??_onewire_sendpacket 0076                             _EEDATA 010C  
                           _EECON1 018C                             _EECON2 018D  
                           _ANSELH 011F                             i1l3541 0DC3  
                           i1l3542 0DC3                             i1l5890 0DBF  
                           i1l5892 0DC0                             i1l5894 0DC1  
                           i1l5886 0DB8                             i1l5888 0DBD  
                           _INTCON 000B                          ??_GetData 0020  
                           _OSCCON 008F                             _TMR1IF 0060  
                           _TMR1ON 0080                             _TRISB5 0435  
                           _TRISB7 0437                          ??_ReadBit 0074  
                           _HumidH 0044                             _HumidL 0045  
                           _Result 03CB            __size_of_ReturnHumidity 0106  
                 __end_of_ds_reset 0FAB                       ds_write@data 0020  
                           ___wmul 0E47                   __end_of_ds_write 0744  
           ReturnHumidity@humidity 003A                          ??___lwdiv 0078  
                    GetData@i_1941 002A                      GetData@i_1942 002C  
                    GetData@i_1943 002E                      GetData@i_1944 0030  
      ReturnTemperature@SensorType 0035                          ??_ds_read 0074  
                           saved_w 007E            __size_of_onewire_listen 0054  
                   ds_read@databit 0020              __end_of_onewire_write 07AC  
                   __pcstackCOMMON 0070            onewire_listen@RxAddress 0026  
          onewire_listen@TxAddress 0024                  _ReturnTemperature 0311  
               ?_ReturnTemperature 0035                     _GetTemperature 0E77  
              ??_ReturnTemperature 0038                         __pbssBANK0 0042  
                       __pmaintext 0013                            ?___wmul 0074  
          __size_of_IdentifySensor 002F                         __pintentry 0004  
        __end_of_ReturnTemperature 043A                            _BAUDCTL 009B  
           __end_of_GetTemperature 0EBF                  onewire_read@count 0021  
                        ?_ds_reset 0070                          ?_ds_write 0070  
                          _GetData 0198                            _ReadBit 0DEA  
                    ?_onewire_init 0070                      ?_onewire_read 0070  
                          _Sensor1 0046                            _Sensor2 0047  
                          _Sensor3 0048                            _Sensor4 0049  
          ReturnTemperature@bitmap 0037                     _ReturnHumidity 043A  
             IdentifySensor@bitmap 0035                    __size_of___wmul 0030  
                          ___lwdiv 0F07                      ds_write@count 0021  
                     ?_GetHumidity 0075                            _ds_read 05F3  
                     __size_of_isr 0016                          _DHT_Error 03C9  
                  ?_GetTemperature 0075                         ??_ds_reset 0074  
                   _onewire_listen 07AC               end_of_initialization 0DB5  
                       ??_ds_write 0074                     ??_onewire_init 0074  
                   ??_onewire_read 0074             __end_of_ReturnHumidity 0540  
       __size_of_ReturnTemperature 0129                onewire_read@databit 0020  
      __size_of_onewire_sendpacket 001C             __end_of_onewire_listen 0800  
                   _DS18b20TimeOut 03CA                  onewire_write@data 0020  
                  ?_ReturnHumidity 0035                GetHumidity@humidity 0033  
        GetTemperature@temperature 0033                     _IdentifySensor 0E18  
                   __end_of___wmul 0E77       ReturnTemperature@temperature 003A  
              start_initialization 0DAA                        __end_of_isr 0DCE  
                  ?_onewire_listen 0070              onewire_listen@Payload 0027  
            onewire_listen@address 0025             __end_of_IdentifySensor 0E47  
         ReturnHumidity@SensorType 0035     onewire_listen@message_recieved 0028  
                     GetData@Check 0026                           ??___wmul 0078  
             __end_of_onewire_init 0DAA               __end_of_onewire_read 06D9  
           __size_of_onewire_write 0068               __size_of_GetHumidity 0048  
                    __pcstackBANK0 0020                           ?_GetData 0070  
                __size_of_ds_reset 0054                  _ds_gettemperature 0540  
                __size_of_ds_write 006B                           ?_ReadBit 0070  
               ?_ds_gettemperature 0024                    ?_IdentifySensor 0070  
                 ___lwdiv@dividend 0076                          __ptext760 0000  
                        __ptext761 0FAB                          __ptext770 0198  
                        __ptext762 043A                          __ptext771 0668  
                        __ptext763 0311                          __ptext780 0DB8  
                        __ptext772 0744                          __ptext764 0E18  
                        __ptext781 0000                          __ptext773 05F3  
                        __ptext765 0EBF                          __ptext774 06D9  
                        __ptext766 0E77                          __ptext775 0F57  
                        __ptext767 07AC                          __ptext776 0DEA  
                        __ptext768 0DCE                          __ptext777 0F07  
                        __ptext769 0540                          __ptext778 0E47  
                        __ptext779 0DA6          onewire_sendpacket@payload 0025  
                         ?___lwdiv 0074                ??_ds_gettemperature 0026  
                 ??_GetTemperature 0077                   onewire_read@data 0023  
                         ?_ds_read 0070                   ___lwdiv@quotient 0020  
        __end_of_ds_gettemperature 05F3                  interrupt_function 0004  
                   ___wmul@product 0020                      _onewire_write 0744  
                         GetData@i 0028  ReturnTemperature@temperature_4136 003C  
      onewire_sendpacket@RxAddress 0077        ds_gettemperature@databitmap 0029  
      onewire_sendpacket@TxAddress 0024                  ___wmul@multiplier 0074  
 ds_gettemperature@result_decimals 002E                   onewire_write@lsb 0023  
                         _CheckSum 0042                          main@input 0041  
                 ??_ReturnHumidity 0038                   __size_of_GetData 0179  
                   ?_onewire_write 0070                  _AutoDetectSensors 0FAB  
                 __size_of_ReadBit 002E               ReturnHumidity@bitmap 0037  
               ?_AutoDetectSensors 0070              __size_of_onewire_init 0004  
            __size_of_onewire_read 0071                   __size_of___lwdiv 0050  
              ??_AutoDetectSensors 0036           GetTemperature@databitmap 0032  
       __end_of_onewire_sendpacket 0DEA                   ??_onewire_listen 0076  
                 __size_of_ds_read 0075                    ___lwdiv@divisor 0074  
                  ___lwdiv@counter 0022                           _ds_reset 0F57  
       __size_of_ds_gettemperature 00B3                           _ds_write 06D9  
        __end_of_AutoDetectSensors 1000                      __size_of_main 0185  
                     _onewire_init 0DA6                       _onewire_read 0668  
                       _DHTTimeOut 03C8        ds_gettemperature@result_int 002A  
                         intlevel1 0000                    ??_onewire_write 0074  
                 ??_IdentifySensor 0079                      ??_GetHumidity 0077  
       __size_of_AutoDetectSensors 0055  
