HI-TECH Software C Compiler 

Linker command line:

--edf=C:\Program Files (x86)\HI-TECH Software\PICC\9.83\dat\en_msgs.txt -cs \
  -h+dist/default/production\CLDC001.X.production.sym -z -Q16F690 -ol.obj \
  -Mdist/default/production/CLDC001.X.production.map -E1 \
  -ACONST=00h-0FFhx16 -ACODE=00h-07FFhx2 -ASTRCODE=00h-0FFFh \
  -AENTRY=00h-0FFhx16 -ASTRING=00h-0FFhx16 -ABANK0=020h-06Fh \
  -ABANK1=0A0h-0EFh -ABANK2=0120h-016Fh \
  -ARAM=020h-06Fh,0A0h-0EFh,0120h-016Fh \
  -AABS1=020h-07Fh,0A0h-0EFh,0120h-016Fh -ACOMMON=070h-07Fh -ASFR0=00h-01Fh \
  -ASFR1=080h-09Fh -ASFR2=0100h-011Fh -ASFR3=0180h-01EFh \
  -preset_vec=00h,intentry,init,end_init -ppowerup=CODE -pfunctab=CODE \
  -ACONFIG=02007h-02007h -pconfig=CONFIG -DCONFIG=2 -AIDLOC=02000h-02003h \
  -pidloc=IDLOC -DIDLOC=2 -AEEDATA=00h-0FFh/02100h -peeprom_data=EEDATA \
  -DEEDATA=2 -DCODE=2 -DSTRCODE=2 -DSTRING=2 -DCONST=2 -DENTRY=2 -k \
  C:\Users\Dave\AppData\Local\Temp\seh0.obj \
  dist/default/production\CLDC001.X.production.obj 

Object code version is 3.10

Machine type is 16F690



                Name                               Link     Load   Length Selector   Space Scale
C:\Users\Dave\AppData\Local\Temp\seh0.obj
                end_init                              0        0        2        0       0
dist/default/production\CLDC001.X.production.obj
                config                             2007     2007        1     400E       0
                text422                             3D0      3D0        4      7A0       0
                text421                             3EB      3EB        F      7D6       0
                text420                             679      679       74      CF2       0
                text419                             5A6      5A6       68      B4C       0
                text418                             409      409       19      812       0
                text417                             60E      60E       6B      C1C       0
                text416                             45D      45D       4E      8BA       0
                text415                             422      422       1D      844       0
                text414                             3D8      3D8        9      7B0       0
                text413                             43F      43F       1E      87E       0
                text412                             3FA      3FA        F      7F4       0
                text411                             3E1      3E1        A      7C2       0
                text410                             54B      54B       5B      A96       0
                text409                             4AB      4AB       50      956       0
                text408                             6ED      6ED      113      DDA       0
                maintext                            4FB      4FB       50      9F6       0
                cstackBANK0                          20       20       1F       20       1
                cstackCOMMON                         70       70        E       70       1
                bssBANK0                             3F       3F        1       20       1
                cinit                               3D4      3D4        4      7A8       0
                strings                               2        2       56        4       0

TOTAL           Name                               Link     Load   Length     Space
        CLASS   CONST          

        CLASS   CODE           
                end_init                              0        0        2         0
                text422                             3D0      3D0        4         0
                text421                             3EB      3EB        F         0
                text420                             679      679       74         0
                text419                             5A6      5A6       68         0
                text418                             409      409       19         0
                text417                             60E      60E       6B         0
                text416                             45D      45D       4E         0
                text415                             422      422       1D         0
                text414                             3D8      3D8        9         0
                text413                             43F      43F       1E         0
                text412                             3FA      3FA        F         0
                text411                             3E1      3E1        A         0
                text410                             54B      54B       5B         0
                text409                             4AB      4AB       50         0
                text408                             6ED      6ED      113         0
                maintext                            4FB      4FB       50         0
                cinit                               3D4      3D4        4         0

        CLASS   STRCODE        

        CLASS   ENTRY          

        CLASS   STRING         
                strings                               2        2       56         0

        CLASS   BANK0          
                cstackBANK0                          20       20       1F         1
                bssBANK0                             3F       3F        1         1

        CLASS   BANK1          

        CLASS   BANK2          

        CLASS   RAM            

        CLASS   ABS1           
                abs_s1                               7E       7E        2         1

        CLASS   COMMON         
                cstackCOMMON                         70       70        E         1

        CLASS   SFR0           

        CLASS   SFR1           

        CLASS   SFR2           

        CLASS   SFR3           

        CLASS   CONFIG         
                config                             2007     2007        1         0

        CLASS   IDLOC          

        CLASS   EEDATA         

        CLASS   BANK3          



SEGMENTS        Name                           Load    Length   Top    Selector   Space  Class     Delta

                reset_vec                      000000  000002  000002         0       0  CODE        2
                strings                        000002  000056  000058         4       0  STRING      2
                cstackBANK0                    000020  000020  000040        20       1  BANK0       1
                cstackCOMMON                   000070  00000E  00007E        70       1  COMMON      1
                text422                        0003D0  000004  0003D4       7A0       0  CODE        2
                cinit                          0003D4  000004  0003D8       7A8       0  CODE        2
                text414                        0003D8  000009  0003E1       7B0       0  CODE        2
                text411                        0003E1  00000A  0003EB       7C2       0  CODE        2
                text421                        0003EB  00000F  0003FA       7D6       0  CODE        2
                text412                        0003FA  00000F  000409       7F4       0  CODE        2
                text418                        000409  000019  000422       812       0  CODE        2
                text415                        000422  00001D  00043F       844       0  CODE        2
                text413                        00043F  00001E  00045D       87E       0  CODE        2
                text416                        00045D  00004E  0004AB       8BA       0  CODE        2
                text409                        0004AB  000050  0004FB       956       0  CODE        2
                maintext                       0004FB  000050  00054B       9F6       0  CODE        2
                text410                        00054B  00005B  0005A6       A96       0  CODE        2
                text419                        0005A6  000068  00060E       B4C       0  CODE        2
                text417                        00060E  00006B  000679       C1C       0  CODE        2
                text420                        000679  000074  0006ED       CF2       0  CODE        2
                text408                        0006ED  000113  000800       DDA       0  CODE        2
                config                         002007  000001  002008      400E       0  CONFIG      2


UNUSED ADDRESS RANGES

        Name                Unused          Largest block    Delta
        BANK0            0040-006F             30           1
        BANK1            00A0-00EF             50           1
        BANK2            0120-016F             50           1
        CODE             0058-03CF            378           2
                         0800-0FFF            800
        CONST            0058-03CF            100           2
                         0800-0FFF            100
        EEDATA           2100-21FF            100           2
        ENTRY            0058-03CF            100           2
                         0800-0FFF            100
        IDLOC            2000-2003              4           2
        RAM              0040-006F             30           1
                         00A0-00EF             50
                         0120-016F             50
        SFR0             0000-001F             20           1
        SFR1             0080-009F             20           1
        SFR2             0100-011F             20           1
        SFR3             0180-01EF             70           1
        STRCODE          0058-03CF            378           2
                         0800-0FFF            800
        STRING           0058-03CF            100           2
                         0800-0FFF            100

                                  Symbol Table

??_DisplayData                  cstackCOMMON 007E
??_RecieveSensorData            cstackBANK0  0024
??___awdiv                      cstackCOMMON 0074
??___awmod                      cstackCOMMON 007D
??_lcd_clear                    cstackCOMMON 0076
??_lcd_goto                     cstackCOMMON 0076
??_lcd_init                     cstackCOMMON 0076
??_lcd_putch                    cstackCOMMON 0076
??_lcd_puts                     cstackCOMMON 0076
??_lcd_write                    cstackCOMMON 0074
??_main                         cstackBANK0  003B
??_msecbase                     cstackCOMMON 0070
??_onewire_init                 cstackCOMMON 0070
??_onewire_listen               cstackCOMMON 0076
??_onewire_read                 cstackCOMMON 0070
??_pause                        cstackCOMMON 0072
?_DisplayData                   cstackBANK0  0022
?_RecieveSensorData             cstackCOMMON 0070
?___awdiv                       cstackCOMMON 0070
?___awmod                       cstackCOMMON 0079
?_lcd_clear                     cstackCOMMON 0070
?_lcd_goto                      cstackCOMMON 0070
?_lcd_init                      cstackCOMMON 0070
?_lcd_putch                     cstackCOMMON 0070
?_lcd_puts                      cstackCOMMON 0070
?_lcd_write                     cstackCOMMON 0070
?_main                          cstackCOMMON 0070
?_msecbase                      cstackCOMMON 0070
?_onewire_init                  cstackCOMMON 0070
?_onewire_listen                cstackCOMMON 0070
?_onewire_read                  cstackCOMMON 0070
?_pause                         cstackCOMMON 0070
DisplayData@data                cstackBANK0  0022
RecieveSensorData@ControllerID  cstackBANK0  0030
RecieveSensorData@Humid         cstackBANK0  002E
RecieveSensorData@HumidH        cstackBANK0  0039
RecieveSensorData@HumidL        cstackBANK0  003A
RecieveSensorData@Temp1         cstackBANK0  0026
RecieveSensorData@Temp1H        cstackBANK0  0031
RecieveSensorData@Temp1L        cstackBANK0  0032
RecieveSensorData@Temp2         cstackBANK0  0028
RecieveSensorData@Temp2H        cstackBANK0  0033
RecieveSensorData@Temp2L        cstackBANK0  0034
RecieveSensorData@Temp3         cstackBANK0  002A
RecieveSensorData@Temp3H        cstackBANK0  0035
RecieveSensorData@Temp3L        cstackBANK0  0036
RecieveSensorData@Temp4         cstackBANK0  002C
RecieveSensorData@Temp4H        cstackBANK0  0037
RecieveSensorData@Temp4L        cstackBANK0  0038
_ANSEL                          (abs)        011E
_ANSELH                         (abs)        011F
_BAUDCTL                        (abs)        009B
_CARRY                          (abs)        0018
_CM1CON0                        (abs)        0119
_CM2CON0                        (abs)        011A
_DisplayData                    text410      054B
_EEADR                          (abs)        010D
_EECON1                         (abs)        018C
_EECON2                         (abs)        018D
_EEDATA                         (abs)        010C
_GIE                            (abs)        005F
_OPTION                         (abs)        0081
_OSCCON                         (abs)        008F
_PORTB                          (abs)        0006
_PORTC                          (abs)        0007
_RA1                            (abs)        0029
_RA2                            (abs)        002A
_RA4                            (abs)        002C
_RCIF                           (abs)        0065
_RCREG                          (abs)        001A
_RCSTA                          (abs)        0018
_RD                             (abs)        0C60
_RecieveSensorData              text408      06ED
_SPBRG                          (abs)        0099
_T0IF                           (abs)        005A
_TMR0                           (abs)        0001
_TRISA                          (abs)        0085
_TRISB                          (abs)        0086
_TRISB5                         (abs)        0435
_TRISB7                         (abs)        0437
_TRISC                          (abs)        0087
_TXIF                           (abs)        0064
_TXREG                          (abs)        0019
_TXSTA                          (abs)        0098
_WR                             (abs)        0C61
_WREN                           (abs)        0C62
__Habs1                         abs1         0000
__Hbank0                        bank0        0000
__Hbank1                        bank1        0000
__Hbank2                        bank2        0000
__Hbank3                        bank3        0000
__HbssBANK0                     bssBANK0     0000
__Hcinit                        cinit        0000
__Hclrtext                      clrtext      0000
__Hcode                         code         0000
__Hcommon                       common       0000
__Hconfig                       config       2008
__HcstackBANK0                  cstackBANK0  0000
__HcstackCOMMON                 cstackCOMMON 0000
__Heeprom_data                  eeprom_data  0000
__Hend_init                     end_init     0002
__Hfunctab                      functab      0000
__Hidloc                        idloc        0000
__Hinit                         init         0000
__Hintentry                     intentry     0000
__Hmaintext                     maintext     0000
__Hpowerup                      powerup      0000
__Hram                          ram          0000
__Hreset_vec                    reset_vec    0000
__Hsfr0                         sfr0         0000
__Hsfr1                         sfr1         0000
__Hsfr2                         sfr2         0000
__Hsfr3                         sfr3         0000
__Hstrings                      strings      0000
__Htext                         text         0000
__Labs1                         abs1         0000
__Lbank0                        bank0        0000
__Lbank1                        bank1        0000
__Lbank2                        bank2        0000
__Lbank3                        bank3        0000
__LbssBANK0                     bssBANK0     0000
__Lcinit                        cinit        0000
__Lclrtext                      clrtext      0000
__Lcode                         code         0000
__Lcommon                       common       0000
__Lconfig                       config       2007
__LcstackBANK0                  cstackBANK0  0000
__LcstackCOMMON                 cstackCOMMON 0000
__Leeprom_data                  eeprom_data  0000
__Lend_init                     end_init     0000
__Lfunctab                      functab      0000
__Lidloc                        idloc        0000
__Linit                         init         0000
__Lintentry                     intentry     0000
__Lmaintext                     maintext     0000
__Lpowerup                      powerup      0000
__Lram                          ram          0000
__Lreset_vec                    reset_vec    0000
__Lsfr0                         sfr0         0000
__Lsfr1                         sfr1         0000
__Lsfr2                         sfr2         0000
__Lsfr3                         sfr3         0000
__Lstrings                      strings      0000
__Ltext                         text         0000
__S0                            (abs)        2008
__S1                            (abs)        007E
__S2                            (abs)        0000
___awdiv                        text420      0679
___awdiv@counter                cstackCOMMON 0075
___awdiv@dividend               cstackCOMMON 0072
___awdiv@divisor                cstackCOMMON 0070
___awdiv@quotient               cstackCOMMON 0077
___awdiv@sign                   cstackCOMMON 0076
___awmod                        text419      05A6
___awmod@counter                cstackBANK0  0020
___awmod@dividend               cstackCOMMON 007B
___awmod@divisor                cstackCOMMON 0079
___awmod@sign                   cstackBANK0  0021
__end_of_DisplayData            text410      05A6
__end_of_RecieveSensorData      text408      0800
__end_of___awdiv                text420      06ED
__end_of___awmod                text419      060E
__end_of_lcd_clear              text412      0409
__end_of_lcd_goto               text411      03EB
__end_of_lcd_init               text409      04FB
__end_of_lcd_putch              text414      03E1
__end_of_lcd_puts               text413      045D
__end_of_lcd_write              text415      043F
__end_of_main                   maintext     054B
__end_of_msecbase               text421      03FA
__end_of_onewire_init           text422      03D4
__end_of_onewire_listen         text416      04AB
__end_of_onewire_read           text417      0679
__end_of_pause                  text418      0422
__pbssBANK0                     bssBANK0     003F
__pcstackBANK0                  cstackBANK0  0020
__pcstackCOMMON                 cstackCOMMON 0070
__pmaintext                     maintext     04FB
__pstrings                      strings      0002
__ptext407                      text407      0000
__ptext408                      text408      06ED
__ptext409                      text409      04AB
__ptext410                      text410      054B
__ptext411                      text411      03E1
__ptext412                      text412      03FA
__ptext413                      text413      043F
__ptext414                      text414      03D8
__ptext415                      text415      0422
__ptext416                      text416      045D
__ptext417                      text417      060E
__ptext418                      text418      0409
__ptext419                      text419      05A6
__ptext420                      text420      0679
__ptext421                      text421      03EB
__ptext422                      text422      03D0
__ptext423                      text423      0000
__size_of_DisplayData           (abs)        0000
__size_of_RecieveSensorData     (abs)        0000
__size_of___awdiv               (abs)        0000
__size_of___awmod               (abs)        0000
__size_of_lcd_clear             (abs)        0000
__size_of_lcd_goto              (abs)        0000
__size_of_lcd_init              (abs)        0000
__size_of_lcd_putch             (abs)        0000
__size_of_lcd_puts              (abs)        0000
__size_of_lcd_write             (abs)        0000
__size_of_main                  (abs)        0000
__size_of_msecbase              (abs)        0000
__size_of_onewire_init          (abs)        0000
__size_of_onewire_listen        (abs)        0000
__size_of_onewire_read          (abs)        0000
__size_of_pause                 (abs)        0000
_b0                             bssBANK0     003F
_exit                           init         0000
_lcd_clear                      text412      03FA
_lcd_goto                       text411      03E1
_lcd_init                       text409      04AB
_lcd_putch                      text414      03D8
_lcd_puts                       text413      043F
_lcd_write                      text415      0422
_main                           maintext     04FB
_msecbase                       text421      03EB
_onewire_init                   text422      03D0
_onewire_listen                 text416      045D
_onewire_read                   text417      060E
_pause                          text418      0409
btemp                           (abs)        007E
end_of_initialization           cinit        03D5
intlevel0                       functab      0000
intlevel1                       functab      0000
intlevel2                       functab      0000
intlevel3                       functab      0000
intlevel4                       functab      0000
intlevel5                       functab      0000
lcd_goto@pos                    cstackCOMMON 0076
lcd_init@init_value             cstackCOMMON 0077
lcd_putch@c                     cstackCOMMON 0076
lcd_puts@s                      cstackCOMMON 0077
lcd_write@c                     cstackCOMMON 0075
main@input                      cstackBANK0  003E
onewire_listen@Payload          cstackCOMMON 007C
onewire_listen@RxAddress        cstackCOMMON 007B
onewire_listen@TxAddress        cstackCOMMON 0077
onewire_listen@address          cstackCOMMON 0078
onewire_listen@message_recieved cstackCOMMON 0079
onewire_read@count              cstackCOMMON 0073
onewire_read@data               cstackCOMMON 0075
onewire_read@databit            cstackCOMMON 0072
pause@usvalue                   cstackCOMMON 0070
pause@x                         cstackCOMMON 0072
reset_vec                       reset_vec    0000
start                           init         0000
start_initialization            cinit        03D4
wtemp0                          (abs)        007E
